ARM GAS  /tmp/cc2s3C24.s 			page 1


   1              		.syntax unified
   2              		.cpu cortex-m3
   3              		.fpu softvfp
   4              		.eabi_attribute 20, 1
   5              		.eabi_attribute 21, 1
   6              		.eabi_attribute 23, 3
   7              		.eabi_attribute 24, 1
   8              		.eabi_attribute 25, 1
   9              		.eabi_attribute 26, 1
  10              		.eabi_attribute 30, 2
  11              		.eabi_attribute 34, 1
  12              		.eabi_attribute 18, 4
  13              		.thumb
  14              		.file	"vexspi.c"
  15              		.text
  16              	.Ltext0:
  17              		.cfi_sections	.debug_frame
  18              		.section	.text.chprintf,"ax",%progbits
  19              		.align	2
  20              		.p2align 4,,15
  21              		.thumb
  22              		.thumb_func
  23              		.type	chprintf, %function
  24              	chprintf:
  25              	.LFB63:
  26              		.file 1 "../ChibiOS_2.6.2/os/various/chprintf.h"
  27              		.loc 1 69 0
  28              		.cfi_startproc
  29              		@ args = 4, pretend = 12, frame = 8
  30              		@ frame_needed = 0, uses_anonymous_args = 1
  31              	.LVL0:
  32 0000 0EB4     		push	{r1, r2, r3}
  33              	.LCFI0:
  34              		.cfi_def_cfa_offset 12
  35              		.cfi_offset 3, -4
  36              		.cfi_offset 2, -8
  37              		.cfi_offset 1, -12
  38 0002 00B5     		push	{lr}
  39              	.LCFI1:
  40              		.cfi_def_cfa_offset 16
  41              		.cfi_offset 14, -16
  42 0004 82B0     		sub	sp, sp, #8
  43              	.LCFI2:
  44              		.cfi_def_cfa_offset 24
  45              		.loc 1 69 0
  46 0006 03AB     		add	r3, sp, #12
  47 0008 53F8041B 		ldr	r1, [r3], #4
  48              		.loc 1 73 0
  49 000c 1A46     		mov	r2, r3
  50              		.loc 1 72 0
  51 000e 0193     		str	r3, [sp, #4]
  52              		.loc 1 73 0
  53 0010 FFF7FEFF 		bl	chvprintf
  54              	.LVL1:
  55              		.loc 1 75 0
  56 0014 02B0     		add	sp, sp, #8
  57 0016 5DF804EB 		pop	{lr}
ARM GAS  /tmp/cc2s3C24.s 			page 2


  58 001a 03B0     		add	sp, sp, #12
  59 001c 7047     		bx	lr
  60              		.cfi_endproc
  61              	.LFE63:
  62              		.size	chprintf, .-chprintf
  63 001e 00BF     		.section	.text._vspi_gpt_cb,"ax",%progbits
  64              		.align	2
  65              		.p2align 4,,15
  66              		.thumb
  67              		.thumb_func
  68              		.type	_vspi_gpt_cb, %function
  69              	_vspi_gpt_cb:
  70              	.LFB64:
  71              		.file 2 "../convex/cortex/fw/vexspi.c"
  72              		.loc 2 102 0
  73              		.cfi_startproc
  74              		@ args = 0, pretend = 0, frame = 0
  75              		@ frame_needed = 0, uses_anonymous_args = 0
  76              	.LVL2:
  77 0000 10B5     		push	{r4, lr}
  78              	.LCFI3:
  79              		.cfi_def_cfa_offset 8
  80              		.cfi_offset 14, -4
  81              		.cfi_offset 4, -8
  82              	.LBB2:
  83              		.loc 2 105 0
  84 0002 2023     		movs	r3, #32
  85              	.LVL3:
  86              	@ 105 "../convex/cortex/fw/vexspi.c" 1
  87 0004 83F31188 		msr     BASEPRI, r3
  88              	@ 0 "" 2
  89              	.LVL4:
  90              		.thumb
  91              	.LBE2:
  92              		.loc 2 108 0
  93 0008 40F20004 		movw	r4, #:lower16:.LANCHOR0
  94 000c C0F20004 		movt	r4, #:upper16:.LANCHOR0
  95 0010 2068     		ldr	r0, [r4, #0]
  96              	.LVL5:
  97 0012 18B1     		cbz	r0, .L3
  98              		.loc 2 109 0
  99 0014 FFF7FEFF 		bl	chSchReadyI
 100              	.LVL6:
 101              		.loc 2 110 0
 102 0018 0023     		movs	r3, #0
 103 001a 2360     		str	r3, [r4, #0]
 104              	.LVL7:
 105              	.L3:
 106              	.LBB3:
 107              		.loc 2 113 0
 108 001c 0023     		movs	r3, #0
 109              	.LVL8:
 110              	@ 113 "../convex/cortex/fw/vexspi.c" 1
 111 001e 83F31188 		msr     BASEPRI, r3
 112              	@ 0 "" 2
 113              	.LVL9:
 114              		.thumb
ARM GAS  /tmp/cc2s3C24.s 			page 3


 115              	.LBE3:
 116              		.loc 2 114 0
 117 0022 10BD     		pop	{r4, pc}
 118              		.cfi_endproc
 119              	.LFE64:
 120              		.size	_vspi_gpt_cb, .-_vspi_gpt_cb
 121 0024 AFF30080 		.section	.text.vexSpiInit,"ax",%progbits
 121      AFF30080 
 121      AFF30080 
 122              		.align	2
 123              		.p2align 4,,15
 124              		.global	vexSpiInit
 125              		.thumb
 126              		.thumb_func
 127              		.type	vexSpiInit, %function
 128              	vexSpiInit:
 129              	.LFB65:
 130              		.loc 2 135 0
 131              		.cfi_startproc
 132              		@ args = 0, pretend = 0, frame = 0
 133              		@ frame_needed = 0, uses_anonymous_args = 0
 134              	.LVL10:
 135 0000 38B5     		push	{r3, r4, r5, lr}
 136              	.LCFI4:
 137              		.cfi_def_cfa_offset 16
 138              		.cfi_offset 14, -4
 139              		.cfi_offset 5, -8
 140              		.cfi_offset 4, -12
 141              		.cfi_offset 3, -16
 142 0002 40F20000 		movw	r0, #:lower16:.LANCHOR2
 143 0006 40F20004 		movw	r4, #:lower16:.LANCHOR1
 144              		.loc 2 135 0
 145 000a 0022     		movs	r2, #0
 146 000c C0F20004 		movt	r4, #:upper16:.LANCHOR1
 147 0010 C0F20000 		movt	r0, #:upper16:.LANCHOR2
 148              	.LVL11:
 149              	.L6:
 150              		.loc 2 140 0 discriminator 2
 151 0014 835C     		ldrb	r3, [r0, r2]	@ zero_extendqisi2
 152 0016 511C     		adds	r1, r2, #1
 153 0018 A354     		strb	r3, [r4, r2]
 154 001a 455C     		ldrb	r5, [r0, r1]	@ zero_extendqisi2
 155 001c 0232     		adds	r2, r2, #2
 156 001e 40F20003 		movw	r3, #:lower16:.LANCHOR1
 157              		.loc 2 139 0 discriminator 2
 158 0022 202A     		cmp	r2, #32
 159              		.loc 2 140 0 discriminator 2
 160 0024 6554     		strb	r5, [r4, r1]
 161 0026 C0F20003 		movt	r3, #:upper16:.LANCHOR1
 162              		.loc 2 139 0 discriminator 2
 163 002a F3D1     		bne	.L6
 164              		.loc 2 142 0
 165 002c 0022     		movs	r2, #0
 166              		.loc 2 145 0
 167 002e 40F20000 		movw	r0, #:lower16:SPID1
 168 0032 40F20001 		movw	r1, #:lower16:.LANCHOR3
 169 0036 C0F20000 		movt	r0, #:upper16:SPID1
ARM GAS  /tmp/cc2s3C24.s 			page 4


 170 003a C0F20001 		movt	r1, #:upper16:.LANCHOR3
 171              		.loc 2 142 0
 172 003e A3F86020 		strh	r2, [r3, #96]	@ movhi
 173              		.loc 2 145 0
 174 0042 FFF7FEFF 		bl	spiStart
 175              		.loc 2 148 0
 176 0046 40F20000 		movw	r0, #:lower16:GPTD2
 177 004a 40F20001 		movw	r1, #:lower16:.LANCHOR4
 178 004e C0F20000 		movt	r0, #:upper16:GPTD2
 179 0052 C0F20001 		movt	r1, #:upper16:.LANCHOR4
 180              		.loc 2 149 0
 181 0056 BDE83840 		pop	{r3, r4, r5, lr}
 182              		.loc 2 148 0
 183 005a FFF7FEBF 		b	gptStart
 184              		.cfi_endproc
 185              	.LFE65:
 186              		.size	vexSpiInit, .-vexSpiInit
 187 005e 00BF     		.section	.text.vexSpiTeamnameSet,"ax",%progbits
 188              		.align	2
 189              		.p2align 4,,15
 190              		.global	vexSpiTeamnameSet
 191              		.thumb
 192              		.thumb_func
 193              		.type	vexSpiTeamnameSet, %function
 194              	vexSpiTeamnameSet:
 195              	.LFB66:
 196              		.loc 2 158 0
 197              		.cfi_startproc
 198              		@ args = 0, pretend = 0, frame = 0
 199              		@ frame_needed = 0, uses_anonymous_args = 0
 200              		@ link register save eliminated.
 201              	.LVL12:
 202              		.loc 2 163 0
 203 0000 0278     		ldrb	r2, [r0, #0]	@ zero_extendqisi2
 204              		.loc 2 164 0
 205 0002 40F20003 		movw	r3, #:lower16:.LANCHOR5
 206 0006 C0F20003 		movt	r3, #:upper16:.LANCHOR5
 207 000a 1A70     		strb	r2, [r3, #0]
 208              		.loc 2 163 0
 209 000c 02B1     		cbz	r2, .L11
 210              		.loc 2 164 0
 211 000e 0130     		adds	r0, r0, #1
 212              	.LVL13:
 213              	.L11:
 214              		.loc 2 163 0
 215 0010 0178     		ldrb	r1, [r0, #0]	@ zero_extendqisi2
 216              		.loc 2 164 0
 217 0012 5970     		strb	r1, [r3, #1]
 218              		.loc 2 163 0
 219 0014 01B1     		cbz	r1, .L13
 220              		.loc 2 164 0
 221 0016 0130     		adds	r0, r0, #1
 222              	.LVL14:
 223              	.L13:
 224              		.loc 2 163 0
 225 0018 0278     		ldrb	r2, [r0, #0]	@ zero_extendqisi2
 226              		.loc 2 164 0
ARM GAS  /tmp/cc2s3C24.s 			page 5


 227 001a 9A70     		strb	r2, [r3, #2]
 228              		.loc 2 163 0
 229 001c 02B1     		cbz	r2, .L15
 230              		.loc 2 164 0
 231 001e 0130     		adds	r0, r0, #1
 232              	.LVL15:
 233              	.L15:
 234              		.loc 2 163 0
 235 0020 0178     		ldrb	r1, [r0, #0]	@ zero_extendqisi2
 236              		.loc 2 164 0
 237 0022 D970     		strb	r1, [r3, #3]
 238              		.loc 2 163 0
 239 0024 01B1     		cbz	r1, .L17
 240              		.loc 2 164 0
 241 0026 0130     		adds	r0, r0, #1
 242              	.LVL16:
 243              	.L17:
 244              		.loc 2 163 0
 245 0028 0278     		ldrb	r2, [r0, #0]	@ zero_extendqisi2
 246              		.loc 2 164 0
 247 002a 1A71     		strb	r2, [r3, #4]
 248              		.loc 2 163 0
 249 002c 02B1     		cbz	r2, .L19
 250              		.loc 2 164 0
 251 002e 0130     		adds	r0, r0, #1
 252              	.LVL17:
 253              	.L19:
 254              		.loc 2 163 0
 255 0030 0178     		ldrb	r1, [r0, #0]	@ zero_extendqisi2
 256              		.loc 2 164 0
 257 0032 5971     		strb	r1, [r3, #5]
 258              		.loc 2 163 0
 259 0034 01B1     		cbz	r1, .L21
 260              		.loc 2 164 0
 261 0036 0130     		adds	r0, r0, #1
 262              	.LVL18:
 263              	.L21:
 264              		.loc 2 163 0
 265 0038 0278     		ldrb	r2, [r0, #0]	@ zero_extendqisi2
 266              		.loc 2 164 0
 267 003a 9A71     		strb	r2, [r3, #6]
 268              		.loc 2 163 0
 269 003c 02B1     		cbz	r2, .L23
 270              		.loc 2 164 0
 271 003e 0130     		adds	r0, r0, #1
 272              	.LVL19:
 273              	.L23:
 274              		.loc 2 163 0
 275 0040 0078     		ldrb	r0, [r0, #0]	@ zero_extendqisi2
 276              	.LVL20:
 277              		.loc 2 166 0
 278 0042 D871     		strb	r0, [r3, #7]
 279              		.loc 2 168 0
 280 0044 7047     		bx	lr
 281              		.cfi_endproc
 282              	.LFE66:
 283              		.size	vexSpiTeamnameSet, .-vexSpiTeamnameSet
ARM GAS  /tmp/cc2s3C24.s 			page 6


 284 0046 00BFAFF3 		.section	.text.vexSpiModeStandalone,"ax",%progbits
 284      0080AFF3 
 284      0080
 285              		.align	2
 286              		.p2align 4,,15
 287              		.global	vexSpiModeStandalone
 288              		.thumb
 289              		.thumb_func
 290              		.type	vexSpiModeStandalone, %function
 291              	vexSpiModeStandalone:
 292              	.LFB67:
 293              		.loc 2 176 0
 294              		.cfi_startproc
 295              		@ args = 0, pretend = 0, frame = 0
 296              		@ frame_needed = 0, uses_anonymous_args = 0
 297              		@ link register save eliminated.
 298              		.loc 2 179 0
 299 0000 40F20003 		movw	r3, #:lower16:.LANCHOR1
 300 0004 C0F20003 		movt	r3, #:upper16:.LANCHOR1
 301 0008 0122     		movs	r2, #1
 302 000a DA70     		strb	r2, [r3, #3]
 303              		.loc 2 180 0
 304 000c 7047     		bx	lr
 305              		.cfi_endproc
 306              	.LFE67:
 307              		.size	vexSpiModeStandalone, .-vexSpiModeStandalone
 308 000e 00BF     		.section	.text.vexSpiGetOnlineStatus,"ax",%progbits
 309              		.align	2
 310              		.p2align 4,,15
 311              		.global	vexSpiGetOnlineStatus
 312              		.thumb
 313              		.thumb_func
 314              		.type	vexSpiGetOnlineStatus, %function
 315              	vexSpiGetOnlineStatus:
 316              	.LFB68:
 317              		.loc 2 190 0
 318              		.cfi_startproc
 319              		@ args = 0, pretend = 0, frame = 0
 320              		@ frame_needed = 0, uses_anonymous_args = 0
 321              		@ link register save eliminated.
 322              		.loc 2 191 0
 323 0000 40F20003 		movw	r3, #:lower16:.LANCHOR1
 324 0004 C0F20003 		movt	r3, #:upper16:.LANCHOR1
 325              		.loc 2 192 0
 326 0008 B3F96000 		ldrsh	r0, [r3, #96]
 327 000c 7047     		bx	lr
 328              		.cfi_endproc
 329              	.LFE68:
 330              		.size	vexSpiGetOnlineStatus, .-vexSpiGetOnlineStatus
 331 000e 00BF     		.section	.text.vexSpiGetJoystickDataPtr,"ax",%progbits
 332              		.align	2
 333              		.p2align 4,,15
 334              		.global	vexSpiGetJoystickDataPtr
 335              		.thumb
 336              		.thumb_func
 337              		.type	vexSpiGetJoystickDataPtr, %function
 338              	vexSpiGetJoystickDataPtr:
ARM GAS  /tmp/cc2s3C24.s 			page 7


 339              	.LFB69:
 340              		.loc 2 202 0
 341              		.cfi_startproc
 342              		@ args = 0, pretend = 0, frame = 0
 343              		@ frame_needed = 0, uses_anonymous_args = 0
 344              		@ link register save eliminated.
 345              	.LVL21:
 346              		.loc 2 204 0
 347 0000 034B     		ldr	r3, .L31
 348 0002 03F10C02 		add	r2, r3, #12
 349              		.loc 2 207 0
 350 0006 0128     		cmp	r0, #1
 351 0008 D4BF     		ite	le
 352 000a 1846     		movle	r0, r3
 353 000c 1046     		movgt	r0, r2
 354              	.LVL22:
 355 000e 7047     		bx	lr
 356              	.L32:
 357              		.align	2
 358              	.L31:
 359 0010 26000000 		.word	.LANCHOR1+38
 360              		.cfi_endproc
 361              	.LFE69:
 362              		.size	vexSpiGetJoystickDataPtr, .-vexSpiGetJoystickDataPtr
 363 0014 AFF30080 		.section	.text.vexSpiGetControl,"ax",%progbits
 363      AFF30080 
 363      AFF30080 
 364              		.align	2
 365              		.p2align 4,,15
 366              		.global	vexSpiGetControl
 367              		.thumb
 368              		.thumb_func
 369              		.type	vexSpiGetControl, %function
 370              	vexSpiGetControl:
 371              	.LFB70:
 372              		.loc 2 216 0
 373              		.cfi_startproc
 374              		@ args = 0, pretend = 0, frame = 0
 375              		@ frame_needed = 0, uses_anonymous_args = 0
 376              		@ link register save eliminated.
 377              		.loc 2 217 0
 378 0000 40F20003 		movw	r3, #:lower16:.LANCHOR1
 379 0004 C0F20003 		movt	r3, #:upper16:.LANCHOR1
 380              		.loc 2 218 0
 381 0008 93F82300 		ldrb	r0, [r3, #35]	@ zero_extendqisi2
 382 000c 7047     		bx	lr
 383              		.cfi_endproc
 384              	.LFE70:
 385              		.size	vexSpiGetControl, .-vexSpiGetControl
 386 000e 00BF     		.section	.text.vexSpiGetMainBattery,"ax",%progbits
 387              		.align	2
 388              		.p2align 4,,15
 389              		.global	vexSpiGetMainBattery
 390              		.thumb
 391              		.thumb_func
 392              		.type	vexSpiGetMainBattery, %function
 393              	vexSpiGetMainBattery:
ARM GAS  /tmp/cc2s3C24.s 			page 8


 394              	.LFB71:
 395              		.loc 2 233 0
 396              		.cfi_startproc
 397              		@ args = 0, pretend = 0, frame = 0
 398              		@ frame_needed = 0, uses_anonymous_args = 0
 399              		@ link register save eliminated.
 400              		.loc 2 235 0
 401 0000 40F20001 		movw	r1, #:lower16:.LANCHOR1
 402 0004 C0F20001 		movt	r1, #:upper16:.LANCHOR1
 403 0008 91F82400 		ldrb	r0, [r1, #36]	@ zero_extendqisi2
 404 000c C0EB0012 		rsb	r2, r0, r0, lsl #4
 405 0010 C0EB8203 		rsb	r3, r0, r2, lsl #2
 406              		.loc 2 236 0
 407 0014 98B2     		uxth	r0, r3
 408 0016 7047     		bx	lr
 409              		.cfi_endproc
 410              	.LFE71:
 411              		.size	vexSpiGetMainBattery, .-vexSpiGetMainBattery
 412 0018 AFF30080 		.section	.text.vexSpiGetBackupBattery,"ax",%progbits
 412      AFF30080 
 413              		.align	2
 414              		.p2align 4,,15
 415              		.global	vexSpiGetBackupBattery
 416              		.thumb
 417              		.thumb_func
 418              		.type	vexSpiGetBackupBattery, %function
 419              	vexSpiGetBackupBattery:
 420              	.LFB72:
 421              		.loc 2 246 0
 422              		.cfi_startproc
 423              		@ args = 0, pretend = 0, frame = 0
 424              		@ frame_needed = 0, uses_anonymous_args = 0
 425              		@ link register save eliminated.
 426              		.loc 2 248 0
 427 0000 40F20001 		movw	r1, #:lower16:.LANCHOR1
 428 0004 C0F20001 		movt	r1, #:upper16:.LANCHOR1
 429 0008 91F82500 		ldrb	r0, [r1, #37]	@ zero_extendqisi2
 430 000c C0EB0012 		rsb	r2, r0, r0, lsl #4
 431 0010 C0EB8203 		rsb	r3, r0, r2, lsl #2
 432              		.loc 2 249 0
 433 0014 98B2     		uxth	r0, r3
 434 0016 7047     		bx	lr
 435              		.cfi_endproc
 436              	.LFE72:
 437              		.size	vexSpiGetBackupBattery, .-vexSpiGetBackupBattery
 438 0018 AFF30080 		.section	.text.vexSpiSetMotor,"ax",%progbits
 438      AFF30080 
 439              		.align	2
 440              		.p2align 4,,15
 441              		.global	vexSpiSetMotor
 442              		.thumb
 443              		.thumb_func
 444              		.type	vexSpiSetMotor, %function
 445              	vexSpiSetMotor:
 446              	.LFB73:
 447              		.loc 2 265 0
 448              		.cfi_startproc
ARM GAS  /tmp/cc2s3C24.s 			page 9


 449              		@ args = 0, pretend = 0, frame = 0
 450              		@ frame_needed = 0, uses_anonymous_args = 0
 451              		@ link register save eliminated.
 452              	.LVL23:
 453              		.loc 2 270 0
 454 0000 83B2     		uxth	r3, r0
 455 0002 072B     		cmp	r3, #7
 456 0004 0AD8     		bhi	.L36
 457              		.loc 2 275 0
 458 0006 7F29     		cmp	r1, #127
 459 0008 09DD     		ble	.L42
 460              		.loc 2 276 0
 461 000a FF21     		movs	r1, #255
 462              	.LVL24:
 463              	.L38:
 464              		.loc 2 285 0
 465 000c 40F2000C 		movw	ip, #:lower16:.LANCHOR1
 466 0010 C0F2000C 		movt	ip, #:upper16:.LANCHOR1
 467 0014 6044     		add	r0, ip, r0
 468              	.LVL25:
 469              		.loc 2 284 0
 470 0016 6AB1     		cbz	r2, .L43
 471              	.LVL26:
 472              	.L39:
 473              		.loc 2 287 0
 474 0018 C943     		mvns	r1, r1
 475 001a 8171     		strb	r1, [r0, #6]
 476              	.L36:
 477 001c 7047     		bx	lr
 478              	.LVL27:
 479              	.L42:
 480              		.loc 2 278 0
 481 001e 11F17F0F 		cmn	r1, #127
 482 0022 09DA     		bge	.L44
 483              		.loc 2 285 0
 484 0024 40F2000C 		movw	ip, #:lower16:.LANCHOR1
 485 0028 C0F2000C 		movt	ip, #:upper16:.LANCHOR1
 486              		.loc 2 279 0
 487 002c 0021     		movs	r1, #0
 488              	.LVL28:
 489              		.loc 2 285 0
 490 002e 6044     		add	r0, ip, r0
 491              		.loc 2 284 0
 492 0030 002A     		cmp	r2, #0
 493 0032 F1D1     		bne	.L39
 494              	.LVL29:
 495              	.L43:
 496              		.loc 2 285 0
 497 0034 8171     		strb	r1, [r0, #6]
 498 0036 7047     		bx	lr
 499              	.LVL30:
 500              	.L44:
 501              		.loc 2 281 0
 502 0038 7F31     		adds	r1, r1, #127
 503              	.LVL31:
 504 003a C9B2     		uxtb	r1, r1
 505              	.LVL32:
ARM GAS  /tmp/cc2s3C24.s 			page 10


 506 003c E6E7     		b	.L38
 507              		.cfi_endproc
 508              	.LFE73:
 509              		.size	vexSpiSetMotor, .-vexSpiSetMotor
 510 003e 00BF     		.section	.text.vexSpiTickDelay,"ax",%progbits
 511              		.align	2
 512              		.p2align 4,,15
 513              		.global	vexSpiTickDelay
 514              		.thumb
 515              		.thumb_func
 516              		.type	vexSpiTickDelay, %function
 517              	vexSpiTickDelay:
 518              	.LFB74:
 519              		.loc 2 299 0
 520              		.cfi_startproc
 521              		@ args = 0, pretend = 0, frame = 0
 522              		@ frame_needed = 0, uses_anonymous_args = 0
 523              	.LVL33:
 524 0000 08B5     		push	{r3, lr}
 525              	.LCFI5:
 526              		.cfi_def_cfa_offset 8
 527              		.cfi_offset 14, -4
 528              		.cfi_offset 3, -8
 529              		.loc 2 299 0
 530 0002 0146     		mov	r1, r0
 531              	.LBB4:
 532              		.loc 2 303 0
 533 0004 2023     		movs	r3, #32
 534              	.LVL34:
 535              	@ 303 "../convex/cortex/fw/vexspi.c" 1
 536 0006 83F31188 		msr     BASEPRI, r3
 537              	@ 0 "" 2
 538              	.LVL35:
 539              		.thumb
 540              	.LBE4:
 541              		.loc 2 304 0
 542 000a 40F20000 		movw	r0, #:lower16:rlist
 543              	.LVL36:
 544 000e C0F20000 		movt	r0, #:upper16:rlist
 545 0012 8269     		ldr	r2, [r0, #24]
 546 0014 40F20003 		movw	r3, #:lower16:.LANCHOR0
 547              	.LVL37:
 548 0018 C0F20003 		movt	r3, #:upper16:.LANCHOR0
 549              		.loc 2 305 0
 550 001c 40F20000 		movw	r0, #:lower16:GPTD2
 551              		.loc 2 304 0
 552 0020 1A60     		str	r2, [r3, #0]
 553              		.loc 2 305 0
 554 0022 C0F20000 		movt	r0, #:upper16:GPTD2
 555 0026 FFF7FEFF 		bl	gptStartOneShotI
 556              		.loc 2 306 0
 557 002a 0220     		movs	r0, #2
 558 002c FFF7FEFF 		bl	chSchGoSleepS
 559              	.LBB5:
 560              		.loc 2 307 0
 561 0030 0023     		movs	r3, #0
 562              	.LVL38:
ARM GAS  /tmp/cc2s3C24.s 			page 11


 563              	@ 307 "../convex/cortex/fw/vexspi.c" 1
 564 0032 83F31188 		msr     BASEPRI, r3
 565              	@ 0 "" 2
 566              	.LVL39:
 567              		.thumb
 568              	.LBE5:
 569              		.loc 2 308 0
 570 0036 08BD     		pop	{r3, pc}
 571              		.cfi_endproc
 572              	.LFE74:
 573              		.size	vexSpiTickDelay, .-vexSpiTickDelay
 574 0038 AFF30080 		.section	.text.vexSpiSend,"ax",%progbits
 574      AFF30080 
 575              		.align	2
 576              		.p2align 4,,15
 577              		.global	vexSpiSend
 578              		.thumb
 579              		.thumb_func
 580              		.type	vexSpiSend, %function
 581              	vexSpiSend:
 582              	.LFB75:
 583              		.loc 2 323 0
 584              		.cfi_startproc
 585              		@ args = 0, pretend = 0, frame = 0
 586              		@ frame_needed = 0, uses_anonymous_args = 0
 587              	.LVL40:
 588 0000 70B5     		push	{r4, r5, r6, lr}
 589              	.LCFI6:
 590              		.cfi_def_cfa_offset 16
 591              		.cfi_offset 14, -4
 592              		.cfi_offset 6, -8
 593              		.cfi_offset 5, -12
 594              		.cfi_offset 4, -16
 595              		.loc 2 330 0
 596 0002 40F20004 		movw	r4, #:lower16:.LANCHOR1
 597 0006 C0F20004 		movt	r4, #:upper16:.LANCHOR1
 598 000a A378     		ldrb	r3, [r4, #2]	@ zero_extendqisi2
 599 000c 032B     		cmp	r3, #3
 600 000e 00F09B81 		beq	.L73
 601              	.L47:
 602              		.loc 2 347 0
 603 0012 4FF40065 		mov	r5, #2048
 604 0016 C4F20105 		movt	r5, 16385
 605 001a 4FF40066 		mov	r6, #2048
 606              		.loc 2 351 0
 607 001e 40F20000 		movw	r0, #:lower16:SPID1
 608 0022 C0F20000 		movt	r0, #:upper16:SPID1
 609              		.loc 2 347 0
 610 0026 2E61     		str	r6, [r5, #16]
 611              	.LVL41:
 612              		.loc 2 351 0
 613 0028 FFF7FEFF 		bl	spi_lld_select
 614              		.loc 2 352 0
 615 002c 40F20000 		movw	r0, #:lower16:SPID1
 616 0030 2188     		ldrh	r1, [r4, #0]
 617 0032 C0F20000 		movt	r0, #:upper16:SPID1
 618 0036 FFF7FEFF 		bl	spi_lld_polled_exchange
ARM GAS  /tmp/cc2s3C24.s 			page 12


 619 003a A4F84000 		strh	r0, [r4, #64]	@ movhi
 620              		.loc 2 354 0
 621 003e 40F20000 		movw	r0, #:lower16:SPID1
 622 0042 C0F20000 		movt	r0, #:upper16:SPID1
 623 0046 FFF7FEFF 		bl	spi_lld_unselect
 624              		.loc 2 365 0
 625 004a 0820     		movs	r0, #8
 626 004c FFF7FEFF 		bl	vexSpiTickDelay
 627              	.LVL42:
 628              		.loc 2 351 0
 629 0050 40F20000 		movw	r0, #:lower16:SPID1
 630 0054 C0F20000 		movt	r0, #:upper16:SPID1
 631 0058 FFF7FEFF 		bl	spi_lld_select
 632              		.loc 2 352 0
 633 005c 40F20000 		movw	r0, #:lower16:SPID1
 634 0060 6188     		ldrh	r1, [r4, #2]
 635 0062 C0F20000 		movt	r0, #:upper16:SPID1
 636 0066 FFF7FEFF 		bl	spi_lld_polled_exchange
 637 006a A4F84200 		strh	r0, [r4, #66]	@ movhi
 638              		.loc 2 354 0
 639 006e 40F20000 		movw	r0, #:lower16:SPID1
 640 0072 C0F20000 		movt	r0, #:upper16:SPID1
 641 0076 FFF7FEFF 		bl	spi_lld_unselect
 642              		.loc 2 365 0
 643 007a 0820     		movs	r0, #8
 644 007c FFF7FEFF 		bl	vexSpiTickDelay
 645              	.LVL43:
 646              		.loc 2 351 0
 647 0080 40F20000 		movw	r0, #:lower16:SPID1
 648 0084 C0F20000 		movt	r0, #:upper16:SPID1
 649 0088 FFF7FEFF 		bl	spi_lld_select
 650              		.loc 2 352 0
 651 008c 40F20000 		movw	r0, #:lower16:SPID1
 652 0090 A188     		ldrh	r1, [r4, #4]
 653 0092 C0F20000 		movt	r0, #:upper16:SPID1
 654 0096 FFF7FEFF 		bl	spi_lld_polled_exchange
 655 009a A4F84400 		strh	r0, [r4, #68]	@ movhi
 656              		.loc 2 354 0
 657 009e 40F20000 		movw	r0, #:lower16:SPID1
 658 00a2 C0F20000 		movt	r0, #:upper16:SPID1
 659 00a6 FFF7FEFF 		bl	spi_lld_unselect
 660              		.loc 2 365 0
 661 00aa 0820     		movs	r0, #8
 662 00ac FFF7FEFF 		bl	vexSpiTickDelay
 663              	.LVL44:
 664              		.loc 2 351 0
 665 00b0 40F20000 		movw	r0, #:lower16:SPID1
 666 00b4 C0F20000 		movt	r0, #:upper16:SPID1
 667 00b8 FFF7FEFF 		bl	spi_lld_select
 668              		.loc 2 352 0
 669 00bc 40F20000 		movw	r0, #:lower16:SPID1
 670 00c0 E188     		ldrh	r1, [r4, #6]
 671 00c2 C0F20000 		movt	r0, #:upper16:SPID1
 672 00c6 FFF7FEFF 		bl	spi_lld_polled_exchange
 673 00ca A4F84600 		strh	r0, [r4, #70]	@ movhi
 674              		.loc 2 354 0
 675 00ce 40F20000 		movw	r0, #:lower16:SPID1
ARM GAS  /tmp/cc2s3C24.s 			page 13


 676 00d2 C0F20000 		movt	r0, #:upper16:SPID1
 677 00d6 FFF7FEFF 		bl	spi_lld_unselect
 678              		.loc 2 359 0
 679 00da 4920     		movs	r0, #73
 680 00dc FFF7FEFF 		bl	vexSpiTickDelay
 681              		.loc 2 351 0
 682 00e0 40F20000 		movw	r0, #:lower16:SPID1
 683 00e4 C0F20000 		movt	r0, #:upper16:SPID1
 684              		.loc 2 362 0
 685 00e8 6E61     		str	r6, [r5, #20]
 686              	.LVL45:
 687              		.loc 2 351 0
 688 00ea FFF7FEFF 		bl	spi_lld_select
 689              		.loc 2 352 0
 690 00ee 40F20000 		movw	r0, #:lower16:SPID1
 691 00f2 2189     		ldrh	r1, [r4, #8]
 692 00f4 C0F20000 		movt	r0, #:upper16:SPID1
 693 00f8 FFF7FEFF 		bl	spi_lld_polled_exchange
 694 00fc A4F84800 		strh	r0, [r4, #72]	@ movhi
 695              		.loc 2 354 0
 696 0100 40F20000 		movw	r0, #:lower16:SPID1
 697 0104 C0F20000 		movt	r0, #:upper16:SPID1
 698 0108 FFF7FEFF 		bl	spi_lld_unselect
 699              		.loc 2 365 0
 700 010c 0820     		movs	r0, #8
 701 010e FFF7FEFF 		bl	vexSpiTickDelay
 702              	.LVL46:
 703              		.loc 2 351 0
 704 0112 40F20000 		movw	r0, #:lower16:SPID1
 705 0116 C0F20000 		movt	r0, #:upper16:SPID1
 706 011a FFF7FEFF 		bl	spi_lld_select
 707              		.loc 2 352 0
 708 011e 40F20000 		movw	r0, #:lower16:SPID1
 709 0122 6189     		ldrh	r1, [r4, #10]
 710 0124 C0F20000 		movt	r0, #:upper16:SPID1
 711 0128 FFF7FEFF 		bl	spi_lld_polled_exchange
 712 012c A4F84A00 		strh	r0, [r4, #74]	@ movhi
 713              		.loc 2 354 0
 714 0130 40F20000 		movw	r0, #:lower16:SPID1
 715 0134 C0F20000 		movt	r0, #:upper16:SPID1
 716 0138 FFF7FEFF 		bl	spi_lld_unselect
 717              		.loc 2 365 0
 718 013c 0820     		movs	r0, #8
 719 013e FFF7FEFF 		bl	vexSpiTickDelay
 720              	.LVL47:
 721              		.loc 2 351 0
 722 0142 40F20000 		movw	r0, #:lower16:SPID1
 723 0146 C0F20000 		movt	r0, #:upper16:SPID1
 724 014a FFF7FEFF 		bl	spi_lld_select
 725              		.loc 2 352 0
 726 014e 40F20000 		movw	r0, #:lower16:SPID1
 727 0152 A189     		ldrh	r1, [r4, #12]
 728 0154 C0F20000 		movt	r0, #:upper16:SPID1
 729 0158 FFF7FEFF 		bl	spi_lld_polled_exchange
 730 015c A4F84C00 		strh	r0, [r4, #76]	@ movhi
 731              		.loc 2 354 0
 732 0160 40F20000 		movw	r0, #:lower16:SPID1
ARM GAS  /tmp/cc2s3C24.s 			page 14


 733 0164 C0F20000 		movt	r0, #:upper16:SPID1
 734 0168 FFF7FEFF 		bl	spi_lld_unselect
 735              		.loc 2 365 0
 736 016c 0820     		movs	r0, #8
 737 016e FFF7FEFF 		bl	vexSpiTickDelay
 738              	.LVL48:
 739              		.loc 2 351 0
 740 0172 40F20000 		movw	r0, #:lower16:SPID1
 741 0176 C0F20000 		movt	r0, #:upper16:SPID1
 742 017a FFF7FEFF 		bl	spi_lld_select
 743              		.loc 2 352 0
 744 017e 40F20000 		movw	r0, #:lower16:SPID1
 745 0182 E189     		ldrh	r1, [r4, #14]
 746 0184 C0F20000 		movt	r0, #:upper16:SPID1
 747 0188 FFF7FEFF 		bl	spi_lld_polled_exchange
 748 018c A4F84E00 		strh	r0, [r4, #78]	@ movhi
 749              		.loc 2 354 0
 750 0190 40F20000 		movw	r0, #:lower16:SPID1
 751 0194 C0F20000 		movt	r0, #:upper16:SPID1
 752 0198 FFF7FEFF 		bl	spi_lld_unselect
 753              		.loc 2 359 0
 754 019c 4920     		movs	r0, #73
 755 019e FFF7FEFF 		bl	vexSpiTickDelay
 756              		.loc 2 351 0
 757 01a2 40F20000 		movw	r0, #:lower16:SPID1
 758 01a6 C0F20000 		movt	r0, #:upper16:SPID1
 759              		.loc 2 362 0
 760 01aa 6E61     		str	r6, [r5, #20]
 761              	.LVL49:
 762              		.loc 2 351 0
 763 01ac FFF7FEFF 		bl	spi_lld_select
 764              		.loc 2 352 0
 765 01b0 40F20000 		movw	r0, #:lower16:SPID1
 766 01b4 218A     		ldrh	r1, [r4, #16]
 767 01b6 C0F20000 		movt	r0, #:upper16:SPID1
 768 01ba FFF7FEFF 		bl	spi_lld_polled_exchange
 769 01be A4F85000 		strh	r0, [r4, #80]	@ movhi
 770              		.loc 2 354 0
 771 01c2 40F20000 		movw	r0, #:lower16:SPID1
 772 01c6 C0F20000 		movt	r0, #:upper16:SPID1
 773 01ca FFF7FEFF 		bl	spi_lld_unselect
 774              		.loc 2 365 0
 775 01ce 0820     		movs	r0, #8
 776 01d0 FFF7FEFF 		bl	vexSpiTickDelay
 777              	.LVL50:
 778              		.loc 2 351 0
 779 01d4 40F20000 		movw	r0, #:lower16:SPID1
 780 01d8 C0F20000 		movt	r0, #:upper16:SPID1
 781 01dc FFF7FEFF 		bl	spi_lld_select
 782              		.loc 2 352 0
 783 01e0 40F20000 		movw	r0, #:lower16:SPID1
 784 01e4 618A     		ldrh	r1, [r4, #18]
 785 01e6 C0F20000 		movt	r0, #:upper16:SPID1
 786 01ea FFF7FEFF 		bl	spi_lld_polled_exchange
 787 01ee A4F85200 		strh	r0, [r4, #82]	@ movhi
 788              		.loc 2 354 0
 789 01f2 40F20000 		movw	r0, #:lower16:SPID1
ARM GAS  /tmp/cc2s3C24.s 			page 15


 790 01f6 C0F20000 		movt	r0, #:upper16:SPID1
 791 01fa FFF7FEFF 		bl	spi_lld_unselect
 792              		.loc 2 365 0
 793 01fe 0820     		movs	r0, #8
 794 0200 FFF7FEFF 		bl	vexSpiTickDelay
 795              	.LVL51:
 796              		.loc 2 351 0
 797 0204 40F20000 		movw	r0, #:lower16:SPID1
 798 0208 C0F20000 		movt	r0, #:upper16:SPID1
 799 020c FFF7FEFF 		bl	spi_lld_select
 800              		.loc 2 352 0
 801 0210 40F20000 		movw	r0, #:lower16:SPID1
 802 0214 A18A     		ldrh	r1, [r4, #20]
 803 0216 C0F20000 		movt	r0, #:upper16:SPID1
 804 021a FFF7FEFF 		bl	spi_lld_polled_exchange
 805 021e A4F85400 		strh	r0, [r4, #84]	@ movhi
 806              		.loc 2 354 0
 807 0222 40F20000 		movw	r0, #:lower16:SPID1
 808 0226 C0F20000 		movt	r0, #:upper16:SPID1
 809 022a FFF7FEFF 		bl	spi_lld_unselect
 810              		.loc 2 365 0
 811 022e 0820     		movs	r0, #8
 812 0230 FFF7FEFF 		bl	vexSpiTickDelay
 813              	.LVL52:
 814              		.loc 2 351 0
 815 0234 40F20000 		movw	r0, #:lower16:SPID1
 816 0238 C0F20000 		movt	r0, #:upper16:SPID1
 817 023c FFF7FEFF 		bl	spi_lld_select
 818              		.loc 2 352 0
 819 0240 40F20000 		movw	r0, #:lower16:SPID1
 820 0244 E18A     		ldrh	r1, [r4, #22]
 821 0246 C0F20000 		movt	r0, #:upper16:SPID1
 822 024a FFF7FEFF 		bl	spi_lld_polled_exchange
 823 024e A4F85600 		strh	r0, [r4, #86]	@ movhi
 824              		.loc 2 354 0
 825 0252 40F20000 		movw	r0, #:lower16:SPID1
 826 0256 C0F20000 		movt	r0, #:upper16:SPID1
 827 025a FFF7FEFF 		bl	spi_lld_unselect
 828              		.loc 2 359 0
 829 025e 4920     		movs	r0, #73
 830 0260 FFF7FEFF 		bl	vexSpiTickDelay
 831              		.loc 2 351 0
 832 0264 40F20000 		movw	r0, #:lower16:SPID1
 833 0268 C0F20000 		movt	r0, #:upper16:SPID1
 834              		.loc 2 362 0
 835 026c 6E61     		str	r6, [r5, #20]
 836              	.LVL53:
 837              		.loc 2 351 0
 838 026e FFF7FEFF 		bl	spi_lld_select
 839              		.loc 2 352 0
 840 0272 40F20000 		movw	r0, #:lower16:SPID1
 841 0276 218B     		ldrh	r1, [r4, #24]
 842 0278 C0F20000 		movt	r0, #:upper16:SPID1
 843 027c FFF7FEFF 		bl	spi_lld_polled_exchange
 844 0280 A4F85800 		strh	r0, [r4, #88]	@ movhi
 845              		.loc 2 354 0
 846 0284 40F20000 		movw	r0, #:lower16:SPID1
ARM GAS  /tmp/cc2s3C24.s 			page 16


 847 0288 C0F20000 		movt	r0, #:upper16:SPID1
 848 028c FFF7FEFF 		bl	spi_lld_unselect
 849              		.loc 2 365 0
 850 0290 0820     		movs	r0, #8
 851 0292 FFF7FEFF 		bl	vexSpiTickDelay
 852              	.LVL54:
 853              		.loc 2 351 0
 854 0296 40F20000 		movw	r0, #:lower16:SPID1
 855 029a C0F20000 		movt	r0, #:upper16:SPID1
 856 029e FFF7FEFF 		bl	spi_lld_select
 857              		.loc 2 352 0
 858 02a2 40F20000 		movw	r0, #:lower16:SPID1
 859 02a6 618B     		ldrh	r1, [r4, #26]
 860 02a8 C0F20000 		movt	r0, #:upper16:SPID1
 861 02ac FFF7FEFF 		bl	spi_lld_polled_exchange
 862 02b0 A4F85A00 		strh	r0, [r4, #90]	@ movhi
 863              		.loc 2 354 0
 864 02b4 40F20000 		movw	r0, #:lower16:SPID1
 865 02b8 C0F20000 		movt	r0, #:upper16:SPID1
 866 02bc FFF7FEFF 		bl	spi_lld_unselect
 867              		.loc 2 365 0
 868 02c0 0820     		movs	r0, #8
 869 02c2 FFF7FEFF 		bl	vexSpiTickDelay
 870              	.LVL55:
 871              		.loc 2 351 0
 872 02c6 40F20000 		movw	r0, #:lower16:SPID1
 873 02ca C0F20000 		movt	r0, #:upper16:SPID1
 874 02ce FFF7FEFF 		bl	spi_lld_select
 875              		.loc 2 352 0
 876 02d2 40F20000 		movw	r0, #:lower16:SPID1
 877 02d6 A18B     		ldrh	r1, [r4, #28]
 878 02d8 C0F20000 		movt	r0, #:upper16:SPID1
 879 02dc FFF7FEFF 		bl	spi_lld_polled_exchange
 880 02e0 A4F85C00 		strh	r0, [r4, #92]	@ movhi
 881              		.loc 2 354 0
 882 02e4 40F20000 		movw	r0, #:lower16:SPID1
 883 02e8 C0F20000 		movt	r0, #:upper16:SPID1
 884 02ec FFF7FEFF 		bl	spi_lld_unselect
 885              		.loc 2 365 0
 886 02f0 0820     		movs	r0, #8
 887 02f2 FFF7FEFF 		bl	vexSpiTickDelay
 888              	.LVL56:
 889              		.loc 2 351 0
 890 02f6 40F20000 		movw	r0, #:lower16:SPID1
 891 02fa C0F20000 		movt	r0, #:upper16:SPID1
 892 02fe FFF7FEFF 		bl	spi_lld_select
 893              		.loc 2 352 0
 894 0302 40F20000 		movw	r0, #:lower16:SPID1
 895 0306 E18B     		ldrh	r1, [r4, #30]
 896 0308 C0F20000 		movt	r0, #:upper16:SPID1
 897 030c FFF7FEFF 		bl	spi_lld_polled_exchange
 898 0310 A4F85E00 		strh	r0, [r4, #94]	@ movhi
 899              		.loc 2 354 0
 900 0314 40F20000 		movw	r0, #:lower16:SPID1
 901 0318 C0F20000 		movt	r0, #:upper16:SPID1
 902 031c FFF7FEFF 		bl	spi_lld_unselect
 903              		.loc 2 365 0
ARM GAS  /tmp/cc2s3C24.s 			page 17


 904 0320 0820     		movs	r0, #8
 905 0322 FFF7FEFF 		bl	vexSpiTickDelay
 906              	.LVL57:
 907              		.loc 2 369 0
 908 0326 E07F     		ldrb	r0, [r4, #31]	@ zero_extendqisi2
 909              		.loc 2 372 0
 910 0328 B4F840C0 		ldrh	ip, [r4, #64]
 911 032c 4CF61713 		movw	r3, #51479
 912              		.loc 2 369 0
 913 0330 411C     		adds	r1, r0, #1
 914              		.loc 2 352 0
 915 0332 40F20002 		movw	r2, #:lower16:.LANCHOR1
 916              		.loc 2 372 0
 917 0336 9C45     		cmp	ip, r3
 918              		.loc 2 369 0
 919 0338 E177     		strb	r1, [r4, #31]
 920              		.loc 2 352 0
 921 033a C0F20002 		movt	r2, #:upper16:.LANCHOR1
 922              		.loc 2 372 0
 923 033e 31D0     		beq	.L74
 924              		.loc 2 404 0
 925 0340 536E     		ldr	r3, [r2, #100]
 926 0342 581C     		adds	r0, r3, #1
 927 0344 5066     		str	r0, [r2, #100]
 928              	.LVL58:
 929              	.L46:
 930 0346 70BD     		pop	{r4, r5, r6, pc}
 931              	.L73:
 932              	.LVL59:
 933              	.LBB6:
 934              		.loc 2 332 0
 935 0348 40F20003 		movw	r3, #:lower16:.LANCHOR5
 936 034c C0F20003 		movt	r3, #:upper16:.LANCHOR5
 937              		.loc 2 339 0
 938 0350 1A78     		ldrb	r2, [r3, #0]	@ zero_extendqisi2
 939              		.loc 2 334 0
 940 0352 5521     		movs	r1, #85
 941 0354 6171     		strb	r1, [r4, #5]
 942              	.LVL60:
 943              		.loc 2 339 0
 944 0356 002A     		cmp	r2, #0
 945 0358 54D1     		bne	.L48
 946              	.LVL61:
 947              		.loc 2 342 0
 948 035a 2022     		movs	r2, #32
 949 035c A271     		strb	r2, [r4, #6]
 950              		.loc 2 339 0
 951 035e 1A78     		ldrb	r2, [r3, #0]	@ zero_extendqisi2
 952 0360 002A     		cmp	r2, #0
 953 0362 54D1     		bne	.L50
 954              	.L78:
 955              	.LVL62:
 956              		.loc 2 342 0
 957 0364 2020     		movs	r0, #32
 958 0366 E071     		strb	r0, [r4, #7]
 959              		.loc 2 339 0
 960 0368 1A78     		ldrb	r2, [r3, #0]	@ zero_extendqisi2
ARM GAS  /tmp/cc2s3C24.s 			page 18


 961 036a 002A     		cmp	r2, #0
 962 036c 54D1     		bne	.L52
 963              	.L79:
 964              	.LVL63:
 965              		.loc 2 342 0
 966 036e 2025     		movs	r5, #32
 967 0370 2572     		strb	r5, [r4, #8]
 968              		.loc 2 339 0
 969 0372 1A78     		ldrb	r2, [r3, #0]	@ zero_extendqisi2
 970 0374 002A     		cmp	r2, #0
 971 0376 54D1     		bne	.L54
 972              	.L80:
 973              	.LVL64:
 974              		.loc 2 342 0
 975 0378 2026     		movs	r6, #32
 976 037a 6672     		strb	r6, [r4, #9]
 977              		.loc 2 339 0
 978 037c 1A78     		ldrb	r2, [r3, #0]	@ zero_extendqisi2
 979 037e 002A     		cmp	r2, #0
 980 0380 54D1     		bne	.L56
 981              	.L81:
 982              	.LVL65:
 983              		.loc 2 342 0
 984 0382 2021     		movs	r1, #32
 985 0384 A172     		strb	r1, [r4, #10]
 986              		.loc 2 339 0
 987 0386 1A78     		ldrb	r2, [r3, #0]	@ zero_extendqisi2
 988 0388 002A     		cmp	r2, #0
 989 038a 54D1     		bne	.L58
 990              	.L82:
 991              	.LVL66:
 992              		.loc 2 342 0
 993 038c 2022     		movs	r2, #32
 994 038e E272     		strb	r2, [r4, #11]
 995              		.loc 2 339 0
 996 0390 1A78     		ldrb	r2, [r3, #0]	@ zero_extendqisi2
 997 0392 002A     		cmp	r2, #0
 998 0394 54D1     		bne	.L60
 999              	.L83:
 1000              		.loc 2 342 0
 1001 0396 2020     		movs	r0, #32
 1002 0398 2073     		strb	r0, [r4, #12]
 1003              	.L61:
 1004              	.LVL67:
 1005              		.loc 2 339 0
 1006 039a 1B78     		ldrb	r3, [r3, #0]	@ zero_extendqisi2
 1007              	.LVL68:
 1008 039c 03B9     		cbnz	r3, .L72
 1009              		.loc 2 342 0
 1010 039e 2023     		movs	r3, #32
 1011              	.L72:
 1012 03a0 6373     		strb	r3, [r4, #13]
 1013              	.LVL69:
 1014 03a2 36E6     		b	.L47
 1015              	.LVL70:
 1016              	.L74:
 1017              	.LBE6:
ARM GAS  /tmp/cc2s3C24.s 			page 19


 1018              		.loc 2 372 0
 1019 03a4 02F13F03 		add	r3, r2, #63
 1020              		.loc 2 322 0
 1021 03a8 02F15F05 		add	r5, r2, #95
 1022              	.LVL71:
 1023              	.L65:
 1024              		.loc 2 322 0 is_stmt 0 discriminator 2
 1025 03ac 5A1C     		adds	r2, r3, #1
 1026              		.loc 2 376 0 is_stmt 1 discriminator 2
 1027 03ae 93F802E0 		ldrb	lr, [r3, #2]	@ zero_extendqisi2
 1028 03b2 5978     		ldrb	r1, [r3, #1]	@ zero_extendqisi2
 1029              		.loc 2 322 0 discriminator 2
 1030 03b4 0233     		adds	r3, r3, #2
 1031              		.loc 2 375 0 discriminator 2
 1032 03b6 AB42     		cmp	r3, r5
 1033              		.loc 2 376 0 discriminator 2
 1034 03b8 02F8201C 		strb	r1, [r2, #-32]
 1035 03bc 03F820EC 		strb	lr, [r3, #-32]
 1036              		.loc 2 375 0 discriminator 2
 1037 03c0 F4D1     		bne	.L65
 1038              		.loc 2 379 0
 1039 03c2 94F82210 		ldrb	r1, [r4, #34]	@ zero_extendqisi2
 1040 03c6 40F20003 		movw	r3, #:lower16:.LANCHOR1
 1041 03ca 01F00F02 		and	r2, r1, #15
 1042 03ce 082A     		cmp	r2, #8
 1043 03d0 C0F20003 		movt	r3, #:upper16:.LANCHOR1
 1044 03d4 37D0     		beq	.L75
 1045              	.L66:
 1046              		.loc 2 383 0
 1047 03d6 94F802E0 		ldrb	lr, [r4, #2]	@ zero_extendqisi2
 1048 03da 40F20003 		movw	r3, #:lower16:.LANCHOR1
 1049 03de 0EF00E0C 		and	ip, lr, #14
 1050 03e2 BCF1020F 		cmp	ip, #2
 1051 03e6 C0F20003 		movt	r3, #:upper16:.LANCHOR1
 1052 03ea ACD1     		bne	.L46
 1053              		.loc 2 386 0
 1054 03ec 022A     		cmp	r2, #2
 1055 03ee 33D0     		beq	.L76
 1056              		.loc 2 389 0
 1057 03f0 032A     		cmp	r2, #3
 1058 03f2 2CD0     		beq	.L77
 1059              	.L69:
 1060              		.loc 2 396 0
 1061 03f4 11F00C0F 		tst	r1, #12
 1062 03f8 A5D0     		beq	.L46
 1063              		.loc 2 398 0
 1064 03fa 0821     		movs	r1, #8
 1065              		.loc 2 399 0
 1066 03fc 0023     		movs	r3, #0
 1067              		.loc 2 398 0
 1068 03fe A170     		strb	r1, [r4, #2]
 1069              		.loc 2 399 0
 1070 0400 6371     		strb	r3, [r4, #5]
 1071 0402 70BD     		pop	{r4, r5, r6, pc}
 1072              	.LVL72:
 1073              	.L48:
 1074              	.LBB7:
ARM GAS  /tmp/cc2s3C24.s 			page 20


 1075              		.loc 2 340 0
 1076 0404 A271     		strb	r2, [r4, #6]
 1077              	.LVL73:
 1078 0406 0133     		adds	r3, r3, #1
 1079              	.LVL74:
 1080              		.loc 2 339 0
 1081 0408 1A78     		ldrb	r2, [r3, #0]	@ zero_extendqisi2
 1082 040a 002A     		cmp	r2, #0
 1083 040c AAD0     		beq	.L78
 1084              	.L50:
 1085              		.loc 2 340 0
 1086 040e E271     		strb	r2, [r4, #7]
 1087 0410 0133     		adds	r3, r3, #1
 1088              	.LVL75:
 1089              		.loc 2 339 0
 1090 0412 1A78     		ldrb	r2, [r3, #0]	@ zero_extendqisi2
 1091 0414 002A     		cmp	r2, #0
 1092 0416 AAD0     		beq	.L79
 1093              	.L52:
 1094              		.loc 2 340 0
 1095 0418 2272     		strb	r2, [r4, #8]
 1096 041a 0133     		adds	r3, r3, #1
 1097              	.LVL76:
 1098              		.loc 2 339 0
 1099 041c 1A78     		ldrb	r2, [r3, #0]	@ zero_extendqisi2
 1100 041e 002A     		cmp	r2, #0
 1101 0420 AAD0     		beq	.L80
 1102              	.L54:
 1103              		.loc 2 340 0
 1104 0422 6272     		strb	r2, [r4, #9]
 1105 0424 0133     		adds	r3, r3, #1
 1106              	.LVL77:
 1107              		.loc 2 339 0
 1108 0426 1A78     		ldrb	r2, [r3, #0]	@ zero_extendqisi2
 1109 0428 002A     		cmp	r2, #0
 1110 042a AAD0     		beq	.L81
 1111              	.L56:
 1112              		.loc 2 340 0
 1113 042c A272     		strb	r2, [r4, #10]
 1114 042e 0133     		adds	r3, r3, #1
 1115              	.LVL78:
 1116              		.loc 2 339 0
 1117 0430 1A78     		ldrb	r2, [r3, #0]	@ zero_extendqisi2
 1118 0432 002A     		cmp	r2, #0
 1119 0434 AAD0     		beq	.L82
 1120              	.L58:
 1121              		.loc 2 340 0
 1122 0436 E272     		strb	r2, [r4, #11]
 1123 0438 0133     		adds	r3, r3, #1
 1124              	.LVL79:
 1125              		.loc 2 339 0
 1126 043a 1A78     		ldrb	r2, [r3, #0]	@ zero_extendqisi2
 1127 043c 002A     		cmp	r2, #0
 1128 043e AAD0     		beq	.L83
 1129              	.L60:
 1130              		.loc 2 340 0
 1131 0440 2273     		strb	r2, [r4, #12]
ARM GAS  /tmp/cc2s3C24.s 			page 21


 1132 0442 0133     		adds	r3, r3, #1
 1133              	.LVL80:
 1134 0444 A9E7     		b	.L61
 1135              	.LVL81:
 1136              	.L75:
 1137              	.LBE7:
 1138              		.loc 2 380 0
 1139 0446 0120     		movs	r0, #1
 1140 0448 A3F86000 		strh	r0, [r3, #96]	@ movhi
 1141 044c C3E7     		b	.L66
 1142              	.L77:
 1143              		.loc 2 391 0
 1144 044e 0822     		movs	r2, #8
 1145              		.loc 2 392 0
 1146 0450 0020     		movs	r0, #0
 1147              		.loc 2 391 0
 1148 0452 9A70     		strb	r2, [r3, #2]
 1149              		.loc 2 392 0
 1150 0454 5871     		strb	r0, [r3, #5]
 1151 0456 CDE7     		b	.L69
 1152              	.L76:
 1153              		.loc 2 387 0
 1154 0458 0322     		movs	r2, #3
 1155 045a 9A70     		strb	r2, [r3, #2]
 1156 045c CAE7     		b	.L69
 1157              		.cfi_endproc
 1158              	.LFE75:
 1159              		.size	vexSpiSend, .-vexSpiSend
 1160 045e 00BF     		.section	.text.vexSpiDebug,"ax",%progbits
 1161              		.align	2
 1162              		.p2align 4,,15
 1163              		.global	vexSpiDebug
 1164              		.thumb
 1165              		.thumb_func
 1166              		.type	vexSpiDebug, %function
 1167              	vexSpiDebug:
 1168              	.LFB76:
 1169              		.loc 2 416 0
 1170              		.cfi_startproc
 1171              		@ args = 0, pretend = 0, frame = 0
 1172              		@ frame_needed = 0, uses_anonymous_args = 0
 1173              	.LVL82:
 1174              		.loc 2 424 0
 1175 0000 0129     		cmp	r1, #1
 1176              		.loc 2 416 0
 1177 0002 2DE9F041 		push	{r4, r5, r6, r7, r8, lr}
 1178              	.LCFI7:
 1179              		.cfi_def_cfa_offset 24
 1180              		.cfi_offset 14, -4
 1181              		.cfi_offset 8, -8
 1182              		.cfi_offset 7, -12
 1183              		.cfi_offset 6, -16
 1184              		.cfi_offset 5, -20
 1185              		.cfi_offset 4, -24
 1186              		.loc 2 416 0
 1187 0006 1546     		mov	r5, r2
 1188 0008 D8BF     		it	le
ARM GAS  /tmp/cc2s3C24.s 			page 22


 1189 000a 40F20005 		movwle	r5, #:lower16:.LANCHOR1
 1190 000e 0446     		mov	r4, r0
 1191 0010 D8BF     		it	le
 1192 0012 C0F20005 		movtle	r5, #:upper16:.LANCHOR1
 1193              		.loc 2 424 0
 1194 0016 0EDD     		ble	.L85
 1195              		.loc 2 426 0
 1196 0018 1068     		ldr	r0, [r2, #0]
 1197              	.LVL83:
 1198 001a FFF7FEFF 		bl	atoi
 1199              	.LVL84:
 1200 001e 0746     		mov	r7, r0	@ movhi
 1201              	.LVL85:
 1202              		.loc 2 427 0
 1203 0020 6868     		ldr	r0, [r5, #4]
 1204 0022 FFF7FEFF 		bl	atoi
 1205              	.LVL86:
 1206              		.loc 2 428 0
 1207 0026 3EB2     		sxth	r6, r7
 1208              		.loc 2 429 0
 1209 0028 40F20005 		movw	r5, #:lower16:.LANCHOR1
 1210 002c C0F20005 		movt	r5, #:upper16:.LANCHOR1
 1211              		.loc 2 428 0
 1212 0030 012E     		cmp	r6, #1
 1213              		.loc 2 429 0
 1214 0032 C8BF     		it	gt
 1215 0034 A855     		strbgt	r0, [r5, r6]
 1216              	.LVL87:
 1217              	.L85:
 1218              		.loc 2 429 0 is_stmt 0 discriminator 1
 1219 0036 A44E     		ldr	r6, .L96
 1220              		.loc 2 415 0 is_stmt 1 discriminator 1
 1221 0038 06F11807 		add	r7, r6, #24
 1222              	.LVL88:
 1223              	.L86:
 1224              		.loc 2 433 0 discriminator 2
 1225 003c 40F20001 		movw	r1, #:lower16:.LC0
 1226 0040 7278     		ldrb	r2, [r6, #1]	@ zero_extendqisi2
 1227 0042 2046     		mov	r0, r4
 1228 0044 C0F20001 		movt	r1, #:upper16:.LC0
 1229 0048 FFF7FEFF 		bl	chprintf
 1230              		.loc 2 415 0 discriminator 2
 1231 004c 731C     		adds	r3, r6, #1
 1232              		.loc 2 433 0 discriminator 2
 1233 004e 40F20001 		movw	r1, #:lower16:.LC0
 1234              		.loc 2 415 0 discriminator 2
 1235 0052 0236     		adds	r6, r6, #2
 1236              		.loc 2 433 0 discriminator 2
 1237 0054 2046     		mov	r0, r4
 1238 0056 C0F20001 		movt	r1, #:upper16:.LC0
 1239 005a 5A78     		ldrb	r2, [r3, #1]	@ zero_extendqisi2
 1240 005c FFF7FEFF 		bl	chprintf
 1241              		.loc 2 432 0 discriminator 2
 1242 0060 BE42     		cmp	r6, r7
 1243 0062 EBD1     		bne	.L86
 1244              		.loc 2 434 0
 1245 0064 40F20001 		movw	r1, #:lower16:.LC1
ARM GAS  /tmp/cc2s3C24.s 			page 23


 1246 0068 C0F20001 		movt	r1, #:upper16:.LC1
 1247 006c 2046     		mov	r0, r4
 1248 006e FFF7FEFF 		bl	chprintf
 1249              	.LVL89:
 1250              		.loc 2 436 0
 1251 0072 40F20001 		movw	r1, #:lower16:.LC0
 1252 0076 2046     		mov	r0, r4
 1253 0078 C0F20001 		movt	r1, #:upper16:.LC0
 1254 007c 2A7E     		ldrb	r2, [r5, #24]	@ zero_extendqisi2
 1255 007e FFF7FEFF 		bl	chprintf
 1256              	.LVL90:
 1257 0082 40F20001 		movw	r1, #:lower16:.LC0
 1258 0086 2046     		mov	r0, r4
 1259 0088 C0F20001 		movt	r1, #:upper16:.LC0
 1260 008c 6A7E     		ldrb	r2, [r5, #25]	@ zero_extendqisi2
 1261 008e FFF7FEFF 		bl	chprintf
 1262              	.LVL91:
 1263 0092 40F20001 		movw	r1, #:lower16:.LC0
 1264 0096 2046     		mov	r0, r4
 1265 0098 C0F20001 		movt	r1, #:upper16:.LC0
 1266 009c AA7E     		ldrb	r2, [r5, #26]	@ zero_extendqisi2
 1267 009e FFF7FEFF 		bl	chprintf
 1268              	.LVL92:
 1269 00a2 40F20001 		movw	r1, #:lower16:.LC0
 1270 00a6 2046     		mov	r0, r4
 1271 00a8 C0F20001 		movt	r1, #:upper16:.LC0
 1272 00ac EA7E     		ldrb	r2, [r5, #27]	@ zero_extendqisi2
 1273 00ae FFF7FEFF 		bl	chprintf
 1274              	.LVL93:
 1275 00b2 40F20001 		movw	r1, #:lower16:.LC0
 1276 00b6 2046     		mov	r0, r4
 1277 00b8 C0F20001 		movt	r1, #:upper16:.LC0
 1278 00bc 2A7F     		ldrb	r2, [r5, #28]	@ zero_extendqisi2
 1279 00be FFF7FEFF 		bl	chprintf
 1280              	.LVL94:
 1281 00c2 40F20001 		movw	r1, #:lower16:.LC0
 1282 00c6 2046     		mov	r0, r4
 1283 00c8 C0F20001 		movt	r1, #:upper16:.LC0
 1284 00cc 6A7F     		ldrb	r2, [r5, #29]	@ zero_extendqisi2
 1285 00ce FFF7FEFF 		bl	chprintf
 1286              	.LVL95:
 1287 00d2 40F20001 		movw	r1, #:lower16:.LC0
 1288 00d6 2046     		mov	r0, r4
 1289 00d8 C0F20001 		movt	r1, #:upper16:.LC0
 1290 00dc AA7F     		ldrb	r2, [r5, #30]	@ zero_extendqisi2
 1291 00de FFF7FEFF 		bl	chprintf
 1292              	.LVL96:
 1293 00e2 40F20001 		movw	r1, #:lower16:.LC0
 1294 00e6 2046     		mov	r0, r4
 1295 00e8 C0F20001 		movt	r1, #:upper16:.LC0
 1296 00ec EA7F     		ldrb	r2, [r5, #31]	@ zero_extendqisi2
 1297 00ee FFF7FEFF 		bl	chprintf
 1298              	.LVL97:
 1299              		.loc 2 437 0
 1300 00f2 40F20001 		movw	r1, #:lower16:.LC1
 1301 00f6 2046     		mov	r0, r4
 1302 00f8 C0F20001 		movt	r1, #:upper16:.LC1
ARM GAS  /tmp/cc2s3C24.s 			page 24


 1303 00fc FFF7FEFF 		bl	chprintf
 1304              	.LVL98:
 1305 0100 724E     		ldr	r6, .L96+4
 1306              		.loc 2 415 0
 1307 0102 06F11807 		add	r7, r6, #24
 1308              	.LVL99:
 1309              	.L87:
 1310              		.loc 2 440 0 discriminator 2
 1311 0106 40F20001 		movw	r1, #:lower16:.LC0
 1312 010a 7278     		ldrb	r2, [r6, #1]	@ zero_extendqisi2
 1313 010c 2046     		mov	r0, r4
 1314 010e C0F20001 		movt	r1, #:upper16:.LC0
 1315 0112 FFF7FEFF 		bl	chprintf
 1316              		.loc 2 415 0 discriminator 2
 1317 0116 721C     		adds	r2, r6, #1
 1318              		.loc 2 440 0 discriminator 2
 1319 0118 40F20001 		movw	r1, #:lower16:.LC0
 1320              		.loc 2 415 0 discriminator 2
 1321 011c 0236     		adds	r6, r6, #2
 1322              		.loc 2 440 0 discriminator 2
 1323 011e 2046     		mov	r0, r4
 1324 0120 C0F20001 		movt	r1, #:upper16:.LC0
 1325 0124 5278     		ldrb	r2, [r2, #1]	@ zero_extendqisi2
 1326 0126 FFF7FEFF 		bl	chprintf
 1327              		.loc 2 439 0 discriminator 2
 1328 012a BE42     		cmp	r6, r7
 1329 012c EBD1     		bne	.L87
 1330              		.loc 2 441 0
 1331 012e 40F20001 		movw	r1, #:lower16:.LC1
 1332 0132 2046     		mov	r0, r4
 1333 0134 C0F20001 		movt	r1, #:upper16:.LC1
 1334 0138 FFF7FEFF 		bl	chprintf
 1335              	.LVL100:
 1336              		.loc 2 443 0
 1337 013c 40F20001 		movw	r1, #:lower16:.LC0
 1338 0140 2046     		mov	r0, r4
 1339 0142 95F83820 		ldrb	r2, [r5, #56]	@ zero_extendqisi2
 1340 0146 C0F20001 		movt	r1, #:upper16:.LC0
 1341 014a FFF7FEFF 		bl	chprintf
 1342              	.LVL101:
 1343 014e 40F20001 		movw	r1, #:lower16:.LC0
 1344 0152 2046     		mov	r0, r4
 1345 0154 95F83920 		ldrb	r2, [r5, #57]	@ zero_extendqisi2
 1346 0158 C0F20001 		movt	r1, #:upper16:.LC0
 1347 015c FFF7FEFF 		bl	chprintf
 1348              	.LVL102:
 1349 0160 40F20001 		movw	r1, #:lower16:.LC0
 1350 0164 2046     		mov	r0, r4
 1351 0166 95F83A20 		ldrb	r2, [r5, #58]	@ zero_extendqisi2
 1352 016a C0F20001 		movt	r1, #:upper16:.LC0
 1353 016e FFF7FEFF 		bl	chprintf
 1354              	.LVL103:
 1355 0172 40F20001 		movw	r1, #:lower16:.LC0
 1356 0176 2046     		mov	r0, r4
 1357 0178 95F83B20 		ldrb	r2, [r5, #59]	@ zero_extendqisi2
 1358 017c C0F20001 		movt	r1, #:upper16:.LC0
 1359 0180 FFF7FEFF 		bl	chprintf
ARM GAS  /tmp/cc2s3C24.s 			page 25


 1360              	.LVL104:
 1361 0184 40F20001 		movw	r1, #:lower16:.LC0
 1362 0188 2046     		mov	r0, r4
 1363 018a 95F83C20 		ldrb	r2, [r5, #60]	@ zero_extendqisi2
 1364 018e C0F20001 		movt	r1, #:upper16:.LC0
 1365 0192 FFF7FEFF 		bl	chprintf
 1366              	.LVL105:
 1367 0196 40F20001 		movw	r1, #:lower16:.LC0
 1368 019a 2046     		mov	r0, r4
 1369 019c 95F83D20 		ldrb	r2, [r5, #61]	@ zero_extendqisi2
 1370 01a0 C0F20001 		movt	r1, #:upper16:.LC0
 1371 01a4 FFF7FEFF 		bl	chprintf
 1372              	.LVL106:
 1373 01a8 40F20001 		movw	r1, #:lower16:.LC0
 1374 01ac 2046     		mov	r0, r4
 1375 01ae 95F83E20 		ldrb	r2, [r5, #62]	@ zero_extendqisi2
 1376 01b2 C0F20001 		movt	r1, #:upper16:.LC0
 1377 01b6 FFF7FEFF 		bl	chprintf
 1378              	.LVL107:
 1379 01ba 40F20001 		movw	r1, #:lower16:.LC0
 1380 01be 95F83F20 		ldrb	r2, [r5, #63]	@ zero_extendqisi2
 1381 01c2 2046     		mov	r0, r4
 1382 01c4 C0F20001 		movt	r1, #:upper16:.LC0
 1383 01c8 FFF7FEFF 		bl	chprintf
 1384              	.LVL108:
 1385              		.loc 2 444 0
 1386 01cc 40F20001 		movw	r1, #:lower16:.LC1
 1387 01d0 2046     		mov	r0, r4
 1388 01d2 C0F20001 		movt	r1, #:upper16:.LC1
 1389 01d6 FFF7FEFF 		bl	chprintf
 1390              		.loc 2 446 0
 1391 01da 40F20001 		movw	r1, #:lower16:.LC2
 1392 01de 6A6E     		ldr	r2, [r5, #100]
 1393 01e0 2046     		mov	r0, r4
 1394 01e2 C0F20001 		movt	r1, #:upper16:.LC2
 1395 01e6 FFF7FEFF 		bl	chprintf
 1396              		.loc 2 448 0
 1397 01ea 40F20001 		movw	r1, #:lower16:.LC3
 1398 01ee 2046     		mov	r0, r4
 1399 01f0 C0F20001 		movt	r1, #:upper16:.LC3
 1400 01f4 FFF7FEFF 		bl	chprintf
 1401              		.loc 2 449 0
 1402 01f8 40F20001 		movw	r1, #:lower16:.LC4
 1403 01fc 2046     		mov	r0, r4
 1404 01fe 95F82620 		ldrb	r2, [r5, #38]	@ zero_extendqisi2
 1405 0202 C0F20001 		movt	r1, #:upper16:.LC4
 1406 0206 FFF7FEFF 		bl	chprintf
 1407              		.loc 2 450 0
 1408 020a 40F20001 		movw	r1, #:lower16:.LC5
 1409 020e 2046     		mov	r0, r4
 1410 0210 95F82720 		ldrb	r2, [r5, #39]	@ zero_extendqisi2
 1411 0214 C0F20001 		movt	r1, #:upper16:.LC5
 1412 0218 FFF7FEFF 		bl	chprintf
 1413              		.loc 2 451 0
 1414 021c 40F20001 		movw	r1, #:lower16:.LC6
 1415 0220 2046     		mov	r0, r4
 1416 0222 95F82820 		ldrb	r2, [r5, #40]	@ zero_extendqisi2
ARM GAS  /tmp/cc2s3C24.s 			page 26


 1417 0226 C0F20001 		movt	r1, #:upper16:.LC6
 1418 022a FFF7FEFF 		bl	chprintf
 1419              		.loc 2 452 0
 1420 022e 40F20001 		movw	r1, #:lower16:.LC7
 1421 0232 2046     		mov	r0, r4
 1422 0234 95F82920 		ldrb	r2, [r5, #41]	@ zero_extendqisi2
 1423 0238 C0F20001 		movt	r1, #:upper16:.LC7
 1424 023c FFF7FEFF 		bl	chprintf
 1425              		.loc 2 453 0
 1426 0240 40F20001 		movw	r1, #:lower16:.LC8
 1427 0244 95F82E30 		ldrb	r3, [r5, #46]	@ zero_extendqisi2
 1428 0248 95F82D20 		ldrb	r2, [r5, #45]	@ zero_extendqisi2
 1429 024c 2046     		mov	r0, r4
 1430 024e C0F20001 		movt	r1, #:upper16:.LC8
 1431 0252 FFF7FEFF 		bl	chprintf
 1432              		.loc 2 454 0
 1433 0256 40F20001 		movw	r1, #:lower16:.LC9
 1434 025a 2046     		mov	r0, r4
 1435 025c C0F20001 		movt	r1, #:upper16:.LC9
 1436 0260 FFF7FEFF 		bl	chprintf
 1437              		.loc 2 455 0
 1438 0264 40F20001 		movw	r1, #:lower16:.LC4
 1439 0268 2046     		mov	r0, r4
 1440 026a 95F83220 		ldrb	r2, [r5, #50]	@ zero_extendqisi2
 1441 026e C0F20001 		movt	r1, #:upper16:.LC4
 1442 0272 FFF7FEFF 		bl	chprintf
 1443              		.loc 2 456 0
 1444 0276 40F20001 		movw	r1, #:lower16:.LC5
 1445 027a 2046     		mov	r0, r4
 1446 027c 95F83320 		ldrb	r2, [r5, #51]	@ zero_extendqisi2
 1447 0280 C0F20001 		movt	r1, #:upper16:.LC5
 1448 0284 FFF7FEFF 		bl	chprintf
 1449              		.loc 2 457 0
 1450 0288 40F20001 		movw	r1, #:lower16:.LC6
 1451 028c 2046     		mov	r0, r4
 1452 028e 95F83420 		ldrb	r2, [r5, #52]	@ zero_extendqisi2
 1453 0292 C0F20001 		movt	r1, #:upper16:.LC6
 1454 0296 FFF7FEFF 		bl	chprintf
 1455              		.loc 2 458 0
 1456 029a 40F20001 		movw	r1, #:lower16:.LC7
 1457 029e 2046     		mov	r0, r4
 1458 02a0 95F83520 		ldrb	r2, [r5, #53]	@ zero_extendqisi2
 1459 02a4 C0F20001 		movt	r1, #:upper16:.LC7
 1460 02a8 FFF7FEFF 		bl	chprintf
 1461              		.loc 2 459 0
 1462 02ac 40F20001 		movw	r1, #:lower16:.LC8
 1463 02b0 95F83920 		ldrb	r2, [r5, #57]	@ zero_extendqisi2
 1464 02b4 95F83A30 		ldrb	r3, [r5, #58]	@ zero_extendqisi2
 1465 02b8 2046     		mov	r0, r4
 1466 02ba C0F20001 		movt	r1, #:upper16:.LC8
 1467              		.loc 2 461 0
 1468 02be BDE8F041 		pop	{r4, r5, r6, r7, r8, lr}
 1469              		.loc 2 459 0
 1470 02c2 FFF7FEBF 		b	chprintf
 1471              	.L97:
 1472 02c6 00BF     		.align	2
 1473              	.L96:
ARM GAS  /tmp/cc2s3C24.s 			page 27


 1474 02c8 FFFFFFFF 		.word	.LANCHOR1-1
 1475 02cc 1F000000 		.word	.LANCHOR1+31
 1476              		.cfi_endproc
 1477              	.LFE76:
 1478              		.size	vexSpiDebug, .-vexSpiDebug
 1479              		.section	.rodata.txInitData,"a",%progbits
 1480              		.align	2
 1481              		.set	.LANCHOR2,. + 0
 1482              		.type	txInitData, %object
 1483              		.size	txInitData, 32
 1484              	txInitData:
 1485 0000 17       		.byte	23
 1486 0001 C9       		.byte	-55
 1487 0002 02       		.byte	2
 1488 0003 00       		.byte	0
 1489 0004 00       		.byte	0
 1490 0005 00       		.byte	0
 1491 0006 7F       		.byte	127
 1492 0007 7F       		.byte	127
 1493 0008 7F       		.byte	127
 1494 0009 7F       		.byte	127
 1495 000a 7F       		.byte	127
 1496 000b 7F       		.byte	127
 1497 000c 7F       		.byte	127
 1498 000d 7F       		.byte	127
 1499 000e 00       		.byte	0
 1500 000f 00       		.byte	0
 1501 0010 00       		.byte	0
 1502 0011 00       		.byte	0
 1503 0012 00       		.byte	0
 1504 0013 00       		.byte	0
 1505 0014 00       		.byte	0
 1506 0015 00       		.byte	0
 1507 0016 00       		.byte	0
 1508 0017 00       		.byte	0
 1509 0018 00       		.byte	0
 1510 0019 00       		.byte	0
 1511 001a 00       		.byte	0
 1512 001b 00       		.byte	0
 1513 001c 00       		.byte	0
 1514 001d 00       		.byte	0
 1515 001e 01       		.byte	1
 1516 001f 00       		.byte	0
 1517              		.section	.data.spicfg,"aw",%progbits
 1518              		.align	2
 1519              		.set	.LANCHOR3,. + 0
 1520              		.type	spicfg, %object
 1521              		.size	spicfg, 12
 1522              	spicfg:
 1523 0000 00000000 		.word	0
 1524 0004 00180140 		.word	1073813504
 1525 0008 0000     		.short	0
 1526 000a 2108     		.short	2081
 1527              		.section	.rodata.vexSpiGpt,"a",%progbits
 1528              		.align	2
 1529              		.set	.LANCHOR4,. + 0
 1530              		.type	vexSpiGpt, %object
ARM GAS  /tmp/cc2s3C24.s 			page 28


 1531              		.size	vexSpiGpt, 12
 1532              	vexSpiGpt:
 1533 0000 40420F00 		.word	1000000
 1534 0004 00000000 		.word	_vspi_gpt_cb
 1535 0008 00000000 		.word	0
 1536              		.section	.rodata.str1.4,"aMS",%progbits,1
 1537              		.align	2
 1538              	.LC0:
 1539 0000 25303258 		.ascii	"%02X \000"
 1539      2000
 1540 0006 0000     		.space	2
 1541              	.LC1:
 1542 0008 0D0A00   		.ascii	"\015\012\000"
 1543 000b 00       		.space	1
 1544              	.LC2:
 1545 000c 6572726F 		.ascii	"errors %ld\015\012\000"
 1545      72732025 
 1545      6C640D0A 
 1545      00
 1546 0019 000000   		.space	3
 1547              	.LC3:
 1548 001c 4A533120 		.ascii	"JS1 - \000"
 1548      2D2000
 1549 0023 00       		.space	1
 1550              	.LC4:
 1551 0024 63683120 		.ascii	"ch1 %3d \000"
 1551      25336420 
 1551      00
 1552 002d 000000   		.space	3
 1553              	.LC5:
 1554 0030 63683220 		.ascii	"ch2 %3d \000"
 1554      25336420 
 1554      00
 1555 0039 000000   		.space	3
 1556              	.LC6:
 1557 003c 63683320 		.ascii	"ch3 %3d \000"
 1557      25336420 
 1557      00
 1558 0045 000000   		.space	3
 1559              	.LC7:
 1560 0048 63683420 		.ascii	"ch4 %3d \000"
 1560      25336420 
 1560      00
 1561 0051 000000   		.space	3
 1562              	.LC8:
 1563 0054 62757474 		.ascii	"button %2X%2X\015\012\000"
 1563      6F6E2025 
 1563      32582532 
 1563      580D0A00 
 1564              	.LC9:
 1565 0064 4A533220 		.ascii	"JS2 - \000"
 1565      2D2000
 1566 006b 00       		.section	.bss.vexSpiData,"aw",%nobits
 1567              		.align	2
 1568              		.set	.LANCHOR1,. + 0
 1569              		.type	vexSpiData, %object
 1570              		.size	vexSpiData, 104
ARM GAS  /tmp/cc2s3C24.s 			page 29


 1571              	vexSpiData:
 1572 0000 00000000 		.space	104
 1572      00000000 
 1572      00000000 
 1572      00000000 
 1572      00000000 
 1573              		.section	.data.spiTeamName,"aw",%progbits
 1574              		.align	2
 1575              		.set	.LANCHOR5,. + 0
 1576              		.type	spiTeamName, %object
 1577              		.size	spiTeamName, 16
 1578              	spiTeamName:
 1579 0000 434F4E56 		.ascii	"CONVEX  \000"
 1579      45582020 
 1579      00
 1580 0009 00000000 		.space	7
 1580      000000
 1581              		.section	.bss.spiThread,"aw",%nobits
 1582              		.align	2
 1583              		.set	.LANCHOR0,. + 0
 1584              		.type	spiThread, %object
 1585              		.size	spiThread, 4
 1586              	spiThread:
 1587 0000 00000000 		.space	4
 1588              		.text
 1589              	.Letext0:
 1590              		.file 3 "/opt/pros/toolchain/bin/../lib/gcc/arm-none-eabi/4.6.3/include/stddef.h"
 1591              		.file 4 "/opt/pros/toolchain/bin/../lib/gcc/arm-none-eabi/4.6.3/../../../../arm-none-eabi/include/
 1592              		.file 5 "../ChibiOS_2.6.2/os/ports/GCC/ARMCMx/chtypes.h"
 1593              		.file 6 "../ChibiOS_2.6.2/os/kernel/include/chlists.h"
 1594              		.file 7 "../ChibiOS_2.6.2/os/kernel/include/chthreads.h"
 1595              		.file 8 "../ChibiOS_2.6.2/os/ports/GCC/ARMCMx/chcore_v7m.h"
 1596              		.file 9 "../ChibiOS_2.6.2/os/kernel/include/chschd.h"
 1597              		.file 10 "../ChibiOS_2.6.2/os/kernel/include/chmtx.h"
 1598              		.file 11 "../ChibiOS_2.6.2/os/kernel/include/chstreams.h"
 1599              		.file 12 "../ChibiOS_2.6.2/os/hal/platforms/STM32F1xx/stm32f10x.h"
 1600              		.file 13 "../ChibiOS_2.6.2/os/hal/platforms/STM32F1xx/stm32_dma.h"
 1601              		.file 14 "../ChibiOS_2.6.2/os/hal/platforms/STM32/GPIOv1/pal_lld.h"
 1602              		.file 15 "../ChibiOS_2.6.2/os/hal/include/gpt.h"
 1603              		.file 16 "../ChibiOS_2.6.2/os/hal/platforms/STM32/TIMv1/gpt_lld.h"
 1604              		.file 17 "../ChibiOS_2.6.2/os/hal/platforms/STM32/TIMv1/stm32_tim.h"
 1605              		.file 18 "../ChibiOS_2.6.2/os/hal/include/spi.h"
 1606              		.file 19 "../ChibiOS_2.6.2/os/hal/platforms/STM32/SPIv1/spi_lld.h"
 1607              		.file 20 "/opt/pros/toolchain/bin/../lib/gcc/arm-none-eabi/4.6.3/include/stdarg.h"
 1608              		.file 21 "<built-in>"
 1609              		.file 22 "../convex/cortex/fw/vexcompat.h"
 1610              		.file 23 "../convex/cortex/fw/vexdigital.h"
 1611              		.file 24 "../convex/cortex/fw/vexime.h"
 1612              		.file 25 "../convex/cortex/fw/vexspi.h"
 1613              		.file 26 "../ChibiOS_2.6.2/os/ports/common/ARMCMx/CMSIS/include/core_cm3.h"