ARM GAS  /tmp/ccNobEQL.s 			page 1


   1              		.syntax unified
   2              		.cpu cortex-m3
   3              		.fpu softvfp
   4              		.eabi_attribute 20, 1
   5              		.eabi_attribute 21, 1
   6              		.eabi_attribute 23, 3
   7              		.eabi_attribute 24, 1
   8              		.eabi_attribute 25, 1
   9              		.eabi_attribute 26, 1
  10              		.eabi_attribute 30, 2
  11              		.eabi_attribute 34, 1
  12              		.eabi_attribute 18, 4
  13              		.thumb
  14              		.file	"vexuser.c"
  15              		.text
  16              	.Ltext0:
  17              		.cfi_sections	.debug_frame
  18              		.section	.text.vexUserSetup,"ax",%progbits
  19              		.align	2
  20              		.p2align 4,,15
  21              		.weak	vexUserSetup
  22              		.thumb
  23              		.thumb_func
  24              		.type	vexUserSetup, %function
  25              	vexUserSetup:
  26              	.LFB63:
  27              		.file 1 "vexuser.c"
  28              		.loc 1 87 0
  29              		.cfi_startproc
  30              		@ args = 0, pretend = 0, frame = 0
  31              		@ frame_needed = 0, uses_anonymous_args = 0
  32              		.loc 1 88 0
  33 0000 40F20000 		movw	r0, #:lower16:.LANCHOR0
  34 0004 0C21     		movs	r1, #12
  35              		.loc 1 87 0
  36 0006 08B5     		push	{r3, lr}
  37              	.LCFI0:
  38              		.cfi_def_cfa_offset 8
  39              		.cfi_offset 14, -4
  40              		.cfi_offset 3, -8
  41              		.loc 1 88 0
  42 0008 C0F20000 		movt	r0, #:upper16:.LANCHOR0
  43 000c FFF7FEFF 		bl	vexDigitalConfigure
  44              		.loc 1 89 0
  45 0010 40F20000 		movw	r0, #:lower16:.LANCHOR1
  46 0014 C0F20000 		movt	r0, #:upper16:.LANCHOR1
  47 0018 0A21     		movs	r1, #10
  48              		.loc 1 90 0
  49 001a BDE80840 		pop	{r3, lr}
  50              		.loc 1 89 0
  51 001e FFF7FEBF 		b	vexMotorConfigure
  52              		.cfi_endproc
  53              	.LFE63:
  54              		.size	vexUserSetup, .-vexUserSetup
  55 0022 00BFAFF3 		.section	.text.vexUserInit,"ax",%progbits
  55      0080AFF3 
  55      0080AFF3 
ARM GAS  /tmp/ccNobEQL.s 			page 2


  55      0080
  56              		.align	2
  57              		.p2align 4,,15
  58              		.weak	vexUserInit
  59              		.thumb
  60              		.thumb_func
  61              		.type	vexUserInit, %function
  62              	vexUserInit:
  63              	.LFB64:
  64              		.loc 1 102 0
  65              		.cfi_startproc
  66              		@ args = 0, pretend = 0, frame = 0
  67              		@ frame_needed = 0, uses_anonymous_args = 0
  68              		@ link register save eliminated.
  69              		.loc 1 104 0
  70 0000 7047     		bx	lr
  71              		.cfi_endproc
  72              	.LFE64:
  73              		.size	vexUserInit, .-vexUserInit
  74 0002 00BFAFF3 		.section	.text.vexAutonomous,"ax",%progbits
  74      0080AFF3 
  74      0080AFF3 
  74      0080
  75              		.align	2
  76              		.p2align 4,,15
  77              		.global	vexAutonomous
  78              		.thumb
  79              		.thumb_func
  80              		.type	vexAutonomous, %function
  81              	vexAutonomous:
  82              	.LFB65:
  83              		.loc 1 114 0
  84              		.cfi_startproc
  85              		@ args = 0, pretend = 0, frame = 0
  86              		@ frame_needed = 0, uses_anonymous_args = 0
  87              	.LVL0:
  88              		.loc 1 118 0
  89 0000 40F20000 		movw	r0, #:lower16:.LC0
  90              	.LVL1:
  91              		.loc 1 114 0
  92 0004 08B5     		push	{r3, lr}
  93              	.LCFI1:
  94              		.cfi_def_cfa_offset 8
  95              		.cfi_offset 14, -4
  96              		.cfi_offset 3, -8
  97              		.loc 1 118 0
  98 0006 C0F20000 		movt	r0, #:upper16:.LC0
  99 000a FFF7FEFF 		bl	vexTaskRegister
 100              	.L4:
 101              		.loc 1 123 0 discriminator 1
 102 000e 1920     		movs	r0, #25
 103 0010 FFF7FEFF 		bl	vexSleep
 104 0014 FBE7     		b	.L4
 105              		.cfi_endproc
 106              	.LFE65:
 107              		.size	vexAutonomous, .-vexAutonomous
 108              		.global	__aeabi_i2d
ARM GAS  /tmp/ccNobEQL.s 			page 3


 109              		.global	__aeabi_ddiv
 110              		.global	__aeabi_ui2d
 111 0016 00BFAFF3 		.section	.text.vexOperator,"ax",%progbits
 111      0080AFF3 
 111      0080
 112              		.align	2
 113              		.p2align 4,,15
 114              		.global	vexOperator
 115              		.thumb
 116              		.thumb_func
 117              		.type	vexOperator, %function
 118              	vexOperator:
 119              	.LFB66:
 120              		.loc 1 140 0
 121              		.cfi_startproc
 122              		@ args = 0, pretend = 0, frame = 0
 123              		@ frame_needed = 0, uses_anonymous_args = 0
 124              	.LVL2:
 125 0000 F0B5     		push	{r4, r5, r6, r7, lr}
 126              	.LCFI2:
 127              		.cfi_def_cfa_offset 20
 128              		.cfi_offset 14, -4
 129              		.cfi_offset 7, -8
 130              		.cfi_offset 6, -12
 131              		.cfi_offset 5, -16
 132              		.cfi_offset 4, -20
 133              		.loc 1 146 0
 134 0002 40F20000 		movw	r0, #:lower16:.LC1
 135              	.LVL3:
 136              		.loc 1 149 0
 137 0006 40F20005 		movw	r5, #:lower16:rlist
 138              		.loc 1 140 0
 139 000a 85B0     		sub	sp, sp, #20
 140              	.LCFI3:
 141              		.cfi_def_cfa_offset 40
 142              		.loc 1 146 0
 143 000c C0F20000 		movt	r0, #:upper16:.LC1
 144              		.loc 1 149 0
 145 0010 C0F20005 		movt	r5, #:upper16:rlist
 146              		.loc 1 146 0
 147 0014 FFF7FEFF 		bl	vexTaskRegister
 148              		.loc 1 149 0
 149 0018 AB69     		ldr	r3, [r5, #24]
 150 001a 5C7F     		ldrb	r4, [r3, #29]	@ zero_extendqisi2
 151 001c 14F00404 		ands	r4, r4, #4
 152 0020 4ED1     		bne	.L7
 153 0022 40F20006 		movw	r6, #:lower16:vtlist
 154 0026 C0F20006 		movt	r6, #:upper16:vtlist
 155              	.LVL4:
 156              	.L8:
 157              		.loc 1 152 0
 158 002a C4F3C001 		ubfx	r1, r4, #3, #1
 159 002e 0020     		movs	r0, #0
 160 0030 FFF7FEFF 		bl	vexDigitalPinSet
 161              		.loc 1 155 0
 162 0034 FFF7FEFF 		bl	vexSpiGetMainBattery
 163 0038 FFF7FEFF 		bl	__aeabi_i2d
ARM GAS  /tmp/ccNobEQL.s 			page 4


 164 003c 22A3     		adr	r3, .L10
 165 003e D3E90023 		ldrd	r2, [r3]
 166 0042 FFF7FEFF 		bl	__aeabi_ddiv
 167 0046 F368     		ldr	r3, [r6, #12]
 168 0048 CDE90001 		strd	r0, [sp]
 169 004c 1846     		mov	r0, r3
 170 004e FFF7FEFF 		bl	__aeabi_ui2d
 171 0052 1DA3     		adr	r3, .L10
 172 0054 D3E90023 		ldrd	r2, [r3]
 173 0058 FFF7FEFF 		bl	__aeabi_ddiv
 174 005c 40F20002 		movw	r2, #:lower16:.LC2
 175 0060 C0F20002 		movt	r2, #:upper16:.LC2
 176 0064 CDE90201 		strd	r0, [sp, #8]
 177 0068 0021     		movs	r1, #0
 178 006a 0120     		movs	r0, #1
 179 006c FFF7FEFF 		bl	vexLcdPrintf
 180              		.loc 1 156 0
 181 0070 0020     		movs	r0, #0
 182 0072 FFF7FEFF 		bl	vexMotorGet
 183 0076 0746     		mov	r7, r0
 184 0078 0920     		movs	r0, #9
 185 007a FFF7FEFF 		bl	vexMotorGet
 186 007e 40F20002 		movw	r2, #:lower16:.LC3
 187 0082 0090     		str	r0, [sp, #0]
 188 0084 0120     		movs	r0, #1
 189 0086 3B46     		mov	r3, r7
 190 0088 C0F20002 		movt	r2, #:upper16:.LC3
 191 008c 0146     		mov	r1, r0
 192 008e FFF7FEFF 		bl	vexLcdPrintf
 193              		.loc 1 160 0
 194 0092 0220     		movs	r0, #2
 195 0094 FFF7FEFF 		bl	vexControllerGet
 196 0098 0146     		mov	r1, r0
 197 009a 0020     		movs	r0, #0
 198 009c FFF7FEFF 		bl	vexMotorSet
 199              		.loc 1 163 0
 200 00a0 0120     		movs	r0, #1
 201 00a2 FFF7FEFF 		bl	vexControllerGet
 202 00a6 0146     		mov	r1, r0
 203 00a8 0920     		movs	r0, #9
 204 00aa FFF7FEFF 		bl	vexMotorSet
 205              		.loc 1 166 0
 206 00ae 1920     		movs	r0, #25
 207 00b0 FFF7FEFF 		bl	vexSleep
 208              		.loc 1 149 0
 209 00b4 AB69     		ldr	r3, [r5, #24]
 210              		.loc 1 152 0
 211 00b6 0134     		adds	r4, r4, #1
 212              		.loc 1 149 0
 213 00b8 5B7F     		ldrb	r3, [r3, #29]	@ zero_extendqisi2
 214              		.loc 1 152 0
 215 00ba A4B2     		uxth	r4, r4
 216              	.LVL5:
 217              		.loc 1 149 0
 218 00bc 5B07     		lsls	r3, r3, #29
 219 00be B4D5     		bpl	.L8
 220              	.LVL6:
ARM GAS  /tmp/ccNobEQL.s 			page 5


 221              	.L7:
 222              		.loc 1 170 0
 223 00c0 0020     		movs	r0, #0
 224 00c2 05B0     		add	sp, sp, #20
 225 00c4 F0BD     		pop	{r4, r5, r6, r7, pc}
 226              	.L11:
 227 00c6 00BF     		.align	3
 228              	.L10:
 229 00c8 00000000 		.word	0
 230 00cc 00408F40 		.word	1083129856
 231              		.cfi_endproc
 232              	.LFE66:
 233              		.size	vexOperator, .-vexOperator
 234              		.section	.rodata.str1.4,"aMS",%progbits,1
 235              		.align	2
 236              	.LC0:
 237 0000 6175746F 		.ascii	"auton\000"
 237      6E00
 238 0006 0000     		.space	2
 239              	.LC1:
 240 0008 6F706572 		.ascii	"operator\000"
 240      61746F72 
 240      00
 241 0011 000000   		.space	3
 242              	.LC2:
 243 0014 25342E32 		.ascii	"%4.2fV   %8.1f\000"
 243      66562020 
 243      2025382E 
 243      316600
 244 0023 00       		.space	1
 245              	.LC3:
 246 0024 4C202533 		.ascii	"L %3d R %3d\000"
 246      64205220 
 246      25336400 
 247              		.section	.data.mConfig,"aw",%progbits
 248              		.align	2
 249              		.set	.LANCHOR1,. + 0
 250              		.type	mConfig, %object
 251              		.size	mConfig, 60
 252              	mConfig:
 253 0000 00       		.byte	0
 254 0001 02       		.byte	2
 255 0002 00       		.byte	0
 256 0003 06       		.byte	6
 257 0004 0000     		.short	0
 258 0006 01       		.byte	1
 259 0007 00       		.byte	0
 260 0008 00       		.byte	0
 261 0009 00       		.byte	0
 262 000a 0000     		.short	0
 263 000c 02       		.byte	2
 264 000d 00       		.byte	0
 265 000e 00       		.byte	0
 266 000f 00       		.byte	0
 267 0010 0000     		.short	0
 268 0012 03       		.byte	3
 269 0013 00       		.byte	0
ARM GAS  /tmp/ccNobEQL.s 			page 6


 270 0014 00       		.byte	0
 271 0015 00       		.byte	0
 272 0016 0000     		.short	0
 273 0018 04       		.byte	4
 274 0019 00       		.byte	0
 275 001a 00       		.byte	0
 276 001b 00       		.byte	0
 277 001c 0000     		.short	0
 278 001e 05       		.byte	5
 279 001f 00       		.byte	0
 280 0020 00       		.byte	0
 281 0021 00       		.byte	0
 282 0022 0000     		.short	0
 283 0024 06       		.byte	6
 284 0025 00       		.byte	0
 285 0026 00       		.byte	0
 286 0027 00       		.byte	0
 287 0028 0000     		.short	0
 288 002a 07       		.byte	7
 289 002b 00       		.byte	0
 290 002c 00       		.byte	0
 291 002d 00       		.byte	0
 292 002e 0000     		.short	0
 293 0030 08       		.byte	8
 294 0031 00       		.byte	0
 295 0032 00       		.byte	0
 296 0033 00       		.byte	0
 297 0034 0000     		.short	0
 298 0036 09       		.byte	9
 299 0037 02       		.byte	2
 300 0038 00       		.byte	0
 301 0039 06       		.byte	6
 302 003a 0100     		.short	1
 303              		.section	.data.dConfig,"aw",%progbits
 304              		.align	2
 305              		.set	.LANCHOR0,. + 0
 306              		.type	dConfig, %object
 307              		.size	dConfig, 72
 308              	dConfig:
 309 0000 00       		.byte	0
 310 0001 02       		.byte	2
 311 0002 01       		.byte	1
 312 0003 00       		.space	1
 313 0004 0000     		.short	0
 314 0006 01       		.byte	1
 315 0007 02       		.byte	2
 316 0008 01       		.byte	1
 317 0009 00       		.space	1
 318 000a 0000     		.short	0
 319 000c 02       		.byte	2
 320 000d 01       		.byte	1
 321 000e 00       		.byte	0
 322 000f 00       		.space	1
 323 0010 0000     		.short	0
 324 0012 03       		.byte	3
 325 0013 01       		.byte	1
 326 0014 00       		.byte	0
ARM GAS  /tmp/ccNobEQL.s 			page 7


 327 0015 00       		.space	1
 328 0016 0000     		.short	0
 329 0018 04       		.byte	4
 330 0019 01       		.byte	1
 331 001a 00       		.byte	0
 332 001b 00       		.space	1
 333 001c 0000     		.short	0
 334 001e 05       		.byte	5
 335 001f 01       		.byte	1
 336 0020 00       		.byte	0
 337 0021 00       		.space	1
 338 0022 0000     		.short	0
 339 0024 06       		.byte	6
 340 0025 01       		.byte	1
 341 0026 00       		.byte	0
 342 0027 00       		.space	1
 343 0028 0000     		.short	0
 344 002a 07       		.byte	7
 345 002b 01       		.byte	1
 346 002c 00       		.byte	0
 347 002d 00       		.space	1
 348 002e 0000     		.short	0
 349 0030 08       		.byte	8
 350 0031 01       		.byte	1
 351 0032 00       		.byte	0
 352 0033 00       		.space	1
 353 0034 0000     		.short	0
 354 0036 09       		.byte	9
 355 0037 01       		.byte	1
 356 0038 00       		.byte	0
 357 0039 00       		.space	1
 358 003a 0000     		.short	0
 359 003c 0A       		.byte	10
 360 003d 01       		.byte	1
 361 003e 00       		.byte	0
 362 003f 00       		.space	1
 363 0040 0000     		.short	0
 364 0042 0B       		.byte	11
 365 0043 01       		.byte	1
 366 0044 00       		.byte	0
 367 0045 00       		.space	1
 368 0046 0000     		.short	0
 369              		.text
 370              	.Letext0:
 371              		.file 2 "/opt/pros/toolchain/bin/../lib/gcc/arm-none-eabi/4.6.3/../../../../arm-none-eabi/include/
 372              		.file 3 "../ChibiOS_2.6.2/os/ports/GCC/ARMCMx/chtypes.h"
 373              		.file 4 "../ChibiOS_2.6.2/os/kernel/include/chlists.h"
 374              		.file 5 "../ChibiOS_2.6.2/os/kernel/include/chthreads.h"
 375              		.file 6 "../ChibiOS_2.6.2/os/ports/GCC/ARMCMx/chcore_v7m.h"
 376              		.file 7 "../ChibiOS_2.6.2/os/kernel/include/chvt.h"
 377              		.file 8 "../ChibiOS_2.6.2/os/kernel/include/chschd.h"
 378              		.file 9 "../ChibiOS_2.6.2/os/kernel/include/chmtx.h"
 379              		.file 10 "../convex/cortex/fw/vexdigital.h"
 380              		.file 11 "../convex/cortex/fw/vexmotor.h"
 381              		.file 12 "../convex/cortex/fw/vexime.h"
 382              		.file 13 "../convex/cortex/fw/vexconfig.h"
 383              		.file 14 "../convex/cortex/fw/vexctl.h"
ARM GAS  /tmp/ccNobEQL.s 			page 8


 384              		.file 15 "../ChibiOS_2.6.2/os/ports/common/ARMCMx/CMSIS/include/core_cm3.h"
 385              		.section	.debug_info,"",%progbits
 386              	.Ldebug_info0:
 387 0000 E5090000 		.4byte	0x9e5
 388 0004 0200     		.2byte	0x2
 389 0006 00000000 		.4byte	.Ldebug_abbrev0
 390 000a 04       		.byte	0x4
 391 000b 01       		.uleb128 0x1
 392 000c E7050000 		.4byte	.LASF202
 393 0010 01       		.byte	0x1
 394 0011 39020000 		.4byte	.LASF203
 395 0015 20050000 		.4byte	.LASF204
 396 0019 00000000 		.4byte	0
 397 001d 00000000 		.4byte	0
 398 0021 00000000 		.4byte	.Ldebug_ranges0+0
 399 0025 00000000 		.4byte	.Ldebug_line0
 400 0029 02       		.uleb128 0x2
 401 002a 04       		.byte	0x4
 402 002b 07       		.byte	0x7
 403 002c 43020000 		.4byte	.LASF0
 404 0030 02       		.uleb128 0x2
 405 0031 01       		.byte	0x1
 406 0032 06       		.byte	0x6
 407 0033 F9000000 		.4byte	.LASF1
 408 0037 02       		.uleb128 0x2
 409 0038 01       		.byte	0x1
 410 0039 08       		.byte	0x8
 411 003a 0C050000 		.4byte	.LASF2
 412 003e 02       		.uleb128 0x2
 413 003f 02       		.byte	0x2
 414 0040 05       		.byte	0x5
 415 0041 58050000 		.4byte	.LASF3
 416 0045 02       		.uleb128 0x2
 417 0046 02       		.byte	0x2
 418 0047 07       		.byte	0x7
 419 0048 94010000 		.4byte	.LASF4
 420 004c 03       		.uleb128 0x3
 421 004d 04       		.byte	0x4
 422 004e 05       		.byte	0x5
 423 004f 696E7400 		.ascii	"int\000"
 424 0053 02       		.uleb128 0x2
 425 0054 08       		.byte	0x8
 426 0055 05       		.byte	0x5
 427 0056 EB000000 		.4byte	.LASF5
 428 005a 02       		.uleb128 0x2
 429 005b 08       		.byte	0x8
 430 005c 07       		.byte	0x7
 431 005d 0D010000 		.4byte	.LASF6
 432 0061 02       		.uleb128 0x2
 433 0062 04       		.byte	0x4
 434 0063 05       		.byte	0x5
 435 0064 3F010000 		.4byte	.LASF7
 436 0068 04       		.uleb128 0x4
 437 0069 04       		.byte	0x4
 438 006a 02       		.uleb128 0x2
 439 006b 04       		.byte	0x4
 440 006c 07       		.byte	0x7
ARM GAS  /tmp/ccNobEQL.s 			page 9


 441 006d F8050000 		.4byte	.LASF8
 442 0071 02       		.uleb128 0x2
 443 0072 01       		.byte	0x1
 444 0073 08       		.byte	0x8
 445 0074 0A060000 		.4byte	.LASF9
 446 0078 05       		.uleb128 0x5
 447 0079 04       		.byte	0x4
 448 007a 7E000000 		.4byte	0x7e
 449 007e 06       		.uleb128 0x6
 450 007f 71000000 		.4byte	0x71
 451 0083 07       		.uleb128 0x7
 452 0084 EF070000 		.4byte	.LASF10
 453 0088 02       		.byte	0x2
 454 0089 2A       		.byte	0x2a
 455 008a 37000000 		.4byte	0x37
 456 008e 07       		.uleb128 0x7
 457 008f E3000000 		.4byte	.LASF11
 458 0093 02       		.byte	0x2
 459 0094 35       		.byte	0x35
 460 0095 3E000000 		.4byte	0x3e
 461 0099 07       		.uleb128 0x7
 462 009a 62010000 		.4byte	.LASF12
 463 009e 02       		.byte	0x2
 464 009f 36       		.byte	0x36
 465 00a0 45000000 		.4byte	0x45
 466 00a4 07       		.uleb128 0x7
 467 00a5 04050000 		.4byte	.LASF13
 468 00a9 02       		.byte	0x2
 469 00aa 4F       		.byte	0x4f
 470 00ab 61000000 		.4byte	0x61
 471 00af 07       		.uleb128 0x7
 472 00b0 CB050000 		.4byte	.LASF14
 473 00b4 02       		.byte	0x2
 474 00b5 50       		.byte	0x50
 475 00b6 6A000000 		.4byte	0x6a
 476 00ba 07       		.uleb128 0x7
 477 00bb D5000000 		.4byte	.LASF15
 478 00bf 03       		.byte	0x3
 479 00c0 2B       		.byte	0x2b
 480 00c1 C5000000 		.4byte	0xc5
 481 00c5 02       		.uleb128 0x2
 482 00c6 01       		.byte	0x1
 483 00c7 02       		.byte	0x2
 484 00c8 FE040000 		.4byte	.LASF16
 485 00cc 07       		.uleb128 0x7
 486 00cd 9C050000 		.4byte	.LASF17
 487 00d1 03       		.byte	0x3
 488 00d2 2C       		.byte	0x2c
 489 00d3 83000000 		.4byte	0x83
 490 00d7 07       		.uleb128 0x7
 491 00d8 4E010000 		.4byte	.LASF18
 492 00dc 03       		.byte	0x3
 493 00dd 2D       		.byte	0x2d
 494 00de 83000000 		.4byte	0x83
 495 00e2 07       		.uleb128 0x7
 496 00e3 E1040000 		.4byte	.LASF19
 497 00e7 03       		.byte	0x3
ARM GAS  /tmp/ccNobEQL.s 			page 10


 498 00e8 2E       		.byte	0x2e
 499 00e9 83000000 		.4byte	0x83
 500 00ed 07       		.uleb128 0x7
 501 00ee 35010000 		.4byte	.LASF20
 502 00f2 03       		.byte	0x3
 503 00f3 2F       		.byte	0x2f
 504 00f4 83000000 		.4byte	0x83
 505 00f8 07       		.uleb128 0x7
 506 00f9 F0040000 		.4byte	.LASF21
 507 00fd 03       		.byte	0x3
 508 00fe 30       		.byte	0x30
 509 00ff AF000000 		.4byte	0xaf
 510 0103 07       		.uleb128 0x7
 511 0104 23030000 		.4byte	.LASF22
 512 0108 03       		.byte	0x3
 513 0109 31       		.byte	0x31
 514 010a A4000000 		.4byte	0xa4
 515 010e 07       		.uleb128 0x7
 516 010f C3030000 		.4byte	.LASF23
 517 0113 03       		.byte	0x3
 518 0114 33       		.byte	0x33
 519 0115 AF000000 		.4byte	0xaf
 520 0119 07       		.uleb128 0x7
 521 011a BD060000 		.4byte	.LASF24
 522 011e 03       		.byte	0x3
 523 011f 35       		.byte	0x35
 524 0120 AF000000 		.4byte	0xaf
 525 0124 07       		.uleb128 0x7
 526 0125 F8010000 		.4byte	.LASF25
 527 0129 04       		.byte	0x4
 528 012a 2A       		.byte	0x2a
 529 012b 2F010000 		.4byte	0x12f
 530 012f 08       		.uleb128 0x8
 531 0130 F8010000 		.4byte	.LASF25
 532 0134 48       		.byte	0x48
 533 0135 05       		.byte	0x5
 534 0136 5E       		.byte	0x5e
 535 0137 54020000 		.4byte	0x254
 536 013b 09       		.uleb128 0x9
 537 013c 95050000 		.4byte	.LASF26
 538 0140 05       		.byte	0x5
 539 0141 5F       		.byte	0x5f
 540 0142 79020000 		.4byte	0x279
 541 0146 02       		.byte	0x2
 542 0147 23       		.byte	0x23
 543 0148 00       		.uleb128 0
 544 0149 09       		.uleb128 0x9
 545 014a E9040000 		.4byte	.LASF27
 546 014e 05       		.byte	0x5
 547 014f 61       		.byte	0x61
 548 0150 79020000 		.4byte	0x279
 549 0154 02       		.byte	0x2
 550 0155 23       		.byte	0x23
 551 0156 04       		.uleb128 0x4
 552 0157 09       		.uleb128 0x9
 553 0158 DC000000 		.4byte	.LASF28
 554 015c 05       		.byte	0x5
ARM GAS  /tmp/ccNobEQL.s 			page 11


 555 015d 63       		.byte	0x63
 556 015e F8000000 		.4byte	0xf8
 557 0162 02       		.byte	0x2
 558 0163 23       		.byte	0x23
 559 0164 08       		.uleb128 0x8
 560 0165 09       		.uleb128 0x9
 561 0166 9C080000 		.4byte	.LASF29
 562 016a 05       		.byte	0x5
 563 016b 64       		.byte	0x64
 564 016c 45030000 		.4byte	0x345
 565 0170 02       		.byte	0x2
 566 0171 23       		.byte	0x23
 567 0172 0C       		.uleb128 0xc
 568 0173 09       		.uleb128 0x9
 569 0174 86010000 		.4byte	.LASF30
 570 0178 05       		.byte	0x5
 571 0179 66       		.byte	0x66
 572 017a 79020000 		.4byte	0x279
 573 017e 02       		.byte	0x2
 574 017f 23       		.byte	0x23
 575 0180 10       		.uleb128 0x10
 576 0181 09       		.uleb128 0x9
 577 0182 3E040000 		.4byte	.LASF31
 578 0186 05       		.byte	0x5
 579 0187 67       		.byte	0x67
 580 0188 79020000 		.4byte	0x279
 581 018c 02       		.byte	0x2
 582 018d 23       		.byte	0x23
 583 018e 14       		.uleb128 0x14
 584 018f 09       		.uleb128 0x9
 585 0190 2F080000 		.4byte	.LASF32
 586 0194 05       		.byte	0x5
 587 0195 6E       		.byte	0x6e
 588 0196 78000000 		.4byte	0x78
 589 019a 02       		.byte	0x2
 590 019b 23       		.byte	0x23
 591 019c 18       		.uleb128 0x18
 592 019d 09       		.uleb128 0x9
 593 019e 62050000 		.4byte	.LASF33
 594 01a2 05       		.byte	0x5
 595 01a3 79       		.byte	0x79
 596 01a4 D7000000 		.4byte	0xd7
 597 01a8 02       		.byte	0x2
 598 01a9 23       		.byte	0x23
 599 01aa 1C       		.uleb128 0x1c
 600 01ab 09       		.uleb128 0x9
 601 01ac A4050000 		.4byte	.LASF34
 602 01b0 05       		.byte	0x5
 603 01b1 7D       		.byte	0x7d
 604 01b2 CC000000 		.4byte	0xcc
 605 01b6 02       		.byte	0x2
 606 01b7 23       		.byte	0x23
 607 01b8 1D       		.uleb128 0x1d
 608 01b9 09       		.uleb128 0x9
 609 01ba 93070000 		.4byte	.LASF35
 610 01be 05       		.byte	0x5
 611 01bf 82       		.byte	0x82
ARM GAS  /tmp/ccNobEQL.s 			page 12


 612 01c0 E2000000 		.4byte	0xe2
 613 01c4 02       		.byte	0x2
 614 01c5 23       		.byte	0x23
 615 01c6 1E       		.uleb128 0x1e
 616 01c7 09       		.uleb128 0x9
 617 01c8 6A050000 		.4byte	.LASF36
 618 01cc 05       		.byte	0x5
 619 01cd 88       		.byte	0x88
 620 01ce ED000000 		.4byte	0xed
 621 01d2 02       		.byte	0x2
 622 01d3 23       		.byte	0x23
 623 01d4 1F       		.uleb128 0x1f
 624 01d5 09       		.uleb128 0x9
 625 01d6 24000000 		.4byte	.LASF37
 626 01da 05       		.byte	0x5
 627 01db 8F       		.byte	0x8f
 628 01dc 2A040000 		.4byte	0x42a
 629 01e0 02       		.byte	0x2
 630 01e1 23       		.byte	0x23
 631 01e2 20       		.uleb128 0x20
 632 01e3 0A       		.uleb128 0xa
 633 01e4 705F7500 		.ascii	"p_u\000"
 634 01e8 05       		.byte	0x5
 635 01e9 B4       		.byte	0xb4
 636 01ea EA040000 		.4byte	0x4ea
 637 01ee 02       		.byte	0x2
 638 01ef 23       		.byte	0x23
 639 01f0 24       		.uleb128 0x24
 640 01f1 09       		.uleb128 0x9
 641 01f2 F7030000 		.4byte	.LASF38
 642 01f6 05       		.byte	0x5
 643 01f7 B9       		.byte	0xb9
 644 01f8 A1020000 		.4byte	0x2a1
 645 01fc 02       		.byte	0x2
 646 01fd 23       		.byte	0x23
 647 01fe 28       		.uleb128 0x28
 648 01ff 09       		.uleb128 0x9
 649 0200 8D020000 		.4byte	.LASF39
 650 0204 05       		.byte	0x5
 651 0205 BF       		.byte	0xbf
 652 0206 7F020000 		.4byte	0x27f
 653 020a 02       		.byte	0x2
 654 020b 23       		.byte	0x23
 655 020c 2C       		.uleb128 0x2c
 656 020d 09       		.uleb128 0x9
 657 020e 1A050000 		.4byte	.LASF40
 658 0212 05       		.byte	0x5
 659 0213 C3       		.byte	0xc3
 660 0214 03010000 		.4byte	0x103
 661 0218 02       		.byte	0x2
 662 0219 23       		.byte	0x23
 663 021a 34       		.uleb128 0x34
 664 021b 09       		.uleb128 0x9
 665 021c C0050000 		.4byte	.LASF41
 666 0220 05       		.byte	0x5
 667 0221 C9       		.byte	0xc9
 668 0222 0E010000 		.4byte	0x10e
ARM GAS  /tmp/ccNobEQL.s 			page 13


 669 0226 02       		.byte	0x2
 670 0227 23       		.byte	0x23
 671 0228 38       		.uleb128 0x38
 672 0229 09       		.uleb128 0x9
 673 022a 4E050000 		.4byte	.LASF42
 674 022e 05       		.byte	0x5
 675 022f D0       		.byte	0xd0
 676 0230 1F050000 		.4byte	0x51f
 677 0234 02       		.byte	0x2
 678 0235 23       		.byte	0x23
 679 0236 3C       		.uleb128 0x3c
 680 0237 09       		.uleb128 0x9
 681 0238 C7060000 		.4byte	.LASF43
 682 023c 05       		.byte	0x5
 683 023d D4       		.byte	0xd4
 684 023e F8000000 		.4byte	0xf8
 685 0242 02       		.byte	0x2
 686 0243 23       		.byte	0x23
 687 0244 40       		.uleb128 0x40
 688 0245 09       		.uleb128 0x9
 689 0246 05010000 		.4byte	.LASF44
 690 024a 05       		.byte	0x5
 691 024b DA       		.byte	0xda
 692 024c 68000000 		.4byte	0x68
 693 0250 02       		.byte	0x2
 694 0251 23       		.byte	0x23
 695 0252 44       		.uleb128 0x44
 696 0253 00       		.byte	0
 697 0254 0B       		.uleb128 0xb
 698 0255 08       		.byte	0x8
 699 0256 04       		.byte	0x4
 700 0257 61       		.byte	0x61
 701 0258 79020000 		.4byte	0x279
 702 025c 09       		.uleb128 0x9
 703 025d 95050000 		.4byte	.LASF26
 704 0261 04       		.byte	0x4
 705 0262 62       		.byte	0x62
 706 0263 79020000 		.4byte	0x279
 707 0267 02       		.byte	0x2
 708 0268 23       		.byte	0x23
 709 0269 00       		.uleb128 0
 710 026a 09       		.uleb128 0x9
 711 026b E9040000 		.4byte	.LASF27
 712 026f 04       		.byte	0x4
 713 0270 64       		.byte	0x64
 714 0271 79020000 		.4byte	0x279
 715 0275 02       		.byte	0x2
 716 0276 23       		.byte	0x23
 717 0277 04       		.uleb128 0x4
 718 0278 00       		.byte	0
 719 0279 05       		.uleb128 0x5
 720 027a 04       		.byte	0x4
 721 027b 24010000 		.4byte	0x124
 722 027f 07       		.uleb128 0x7
 723 0280 4C040000 		.4byte	.LASF45
 724 0284 04       		.byte	0x4
 725 0285 66       		.byte	0x66
ARM GAS  /tmp/ccNobEQL.s 			page 14


 726 0286 54020000 		.4byte	0x254
 727 028a 0B       		.uleb128 0xb
 728 028b 04       		.byte	0x4
 729 028c 04       		.byte	0x4
 730 028d 6B       		.byte	0x6b
 731 028e A1020000 		.4byte	0x2a1
 732 0292 09       		.uleb128 0x9
 733 0293 95050000 		.4byte	.LASF26
 734 0297 04       		.byte	0x4
 735 0298 6D       		.byte	0x6d
 736 0299 79020000 		.4byte	0x279
 737 029d 02       		.byte	0x2
 738 029e 23       		.byte	0x23
 739 029f 00       		.uleb128 0
 740 02a0 00       		.byte	0
 741 02a1 07       		.uleb128 0x7
 742 02a2 B7030000 		.4byte	.LASF46
 743 02a6 04       		.byte	0x4
 744 02a7 70       		.byte	0x70
 745 02a8 8A020000 		.4byte	0x28a
 746 02ac 07       		.uleb128 0x7
 747 02ad CA010000 		.4byte	.LASF47
 748 02b1 06       		.byte	0x6
 749 02b2 E5       		.byte	0xe5
 750 02b3 68000000 		.4byte	0x68
 751 02b7 0C       		.uleb128 0xc
 752 02b8 49070000 		.4byte	.LASF48
 753 02bc 24       		.byte	0x24
 754 02bd 06       		.byte	0x6
 755 02be 0C01     		.2byte	0x10c
 756 02c0 45030000 		.4byte	0x345
 757 02c4 0D       		.uleb128 0xd
 758 02c5 723400   		.ascii	"r4\000"
 759 02c8 06       		.byte	0x6
 760 02c9 1F01     		.2byte	0x11f
 761 02cb AC020000 		.4byte	0x2ac
 762 02cf 02       		.byte	0x2
 763 02d0 23       		.byte	0x23
 764 02d1 00       		.uleb128 0
 765 02d2 0D       		.uleb128 0xd
 766 02d3 723500   		.ascii	"r5\000"
 767 02d6 06       		.byte	0x6
 768 02d7 2001     		.2byte	0x120
 769 02d9 AC020000 		.4byte	0x2ac
 770 02dd 02       		.byte	0x2
 771 02de 23       		.byte	0x23
 772 02df 04       		.uleb128 0x4
 773 02e0 0D       		.uleb128 0xd
 774 02e1 723600   		.ascii	"r6\000"
 775 02e4 06       		.byte	0x6
 776 02e5 2101     		.2byte	0x121
 777 02e7 AC020000 		.4byte	0x2ac
 778 02eb 02       		.byte	0x2
 779 02ec 23       		.byte	0x23
 780 02ed 08       		.uleb128 0x8
 781 02ee 0D       		.uleb128 0xd
 782 02ef 723700   		.ascii	"r7\000"
ARM GAS  /tmp/ccNobEQL.s 			page 15


 783 02f2 06       		.byte	0x6
 784 02f3 2201     		.2byte	0x122
 785 02f5 AC020000 		.4byte	0x2ac
 786 02f9 02       		.byte	0x2
 787 02fa 23       		.byte	0x23
 788 02fb 0C       		.uleb128 0xc
 789 02fc 0D       		.uleb128 0xd
 790 02fd 723800   		.ascii	"r8\000"
 791 0300 06       		.byte	0x6
 792 0301 2301     		.2byte	0x123
 793 0303 AC020000 		.4byte	0x2ac
 794 0307 02       		.byte	0x2
 795 0308 23       		.byte	0x23
 796 0309 10       		.uleb128 0x10
 797 030a 0D       		.uleb128 0xd
 798 030b 723900   		.ascii	"r9\000"
 799 030e 06       		.byte	0x6
 800 030f 2401     		.2byte	0x124
 801 0311 AC020000 		.4byte	0x2ac
 802 0315 02       		.byte	0x2
 803 0316 23       		.byte	0x23
 804 0317 14       		.uleb128 0x14
 805 0318 0D       		.uleb128 0xd
 806 0319 72313000 		.ascii	"r10\000"
 807 031d 06       		.byte	0x6
 808 031e 2501     		.2byte	0x125
 809 0320 AC020000 		.4byte	0x2ac
 810 0324 02       		.byte	0x2
 811 0325 23       		.byte	0x23
 812 0326 18       		.uleb128 0x18
 813 0327 0D       		.uleb128 0xd
 814 0328 72313100 		.ascii	"r11\000"
 815 032c 06       		.byte	0x6
 816 032d 2601     		.2byte	0x126
 817 032f AC020000 		.4byte	0x2ac
 818 0333 02       		.byte	0x2
 819 0334 23       		.byte	0x23
 820 0335 1C       		.uleb128 0x1c
 821 0336 0D       		.uleb128 0xd
 822 0337 6C7200   		.ascii	"lr\000"
 823 033a 06       		.byte	0x6
 824 033b 2701     		.2byte	0x127
 825 033d AC020000 		.4byte	0x2ac
 826 0341 02       		.byte	0x2
 827 0342 23       		.byte	0x23
 828 0343 20       		.uleb128 0x20
 829 0344 00       		.byte	0
 830 0345 0C       		.uleb128 0xc
 831 0346 24070000 		.4byte	.LASF49
 832 034a 04       		.byte	0x4
 833 034b 06       		.byte	0x6
 834 034c 3101     		.2byte	0x131
 835 034e 62030000 		.4byte	0x362
 836 0352 0D       		.uleb128 0xd
 837 0353 72313300 		.ascii	"r13\000"
 838 0357 06       		.byte	0x6
 839 0358 3201     		.2byte	0x132
ARM GAS  /tmp/ccNobEQL.s 			page 16


 840 035a 62030000 		.4byte	0x362
 841 035e 02       		.byte	0x2
 842 035f 23       		.byte	0x23
 843 0360 00       		.uleb128 0
 844 0361 00       		.byte	0
 845 0362 05       		.uleb128 0x5
 846 0363 04       		.byte	0x4
 847 0364 B7020000 		.4byte	0x2b7
 848 0368 07       		.uleb128 0x7
 849 0369 D2060000 		.4byte	.LASF50
 850 036d 07       		.byte	0x7
 851 036e 58       		.byte	0x58
 852 036f 73030000 		.4byte	0x373
 853 0373 05       		.uleb128 0x5
 854 0374 04       		.byte	0x4
 855 0375 79030000 		.4byte	0x379
 856 0379 0E       		.uleb128 0xe
 857 037a 01       		.byte	0x1
 858 037b 85030000 		.4byte	0x385
 859 037f 0F       		.uleb128 0xf
 860 0380 68000000 		.4byte	0x68
 861 0384 00       		.byte	0
 862 0385 07       		.uleb128 0x7
 863 0386 17000000 		.4byte	.LASF51
 864 038a 07       		.byte	0x7
 865 038b 5D       		.byte	0x5d
 866 038c 90030000 		.4byte	0x390
 867 0390 08       		.uleb128 0x8
 868 0391 17000000 		.4byte	.LASF51
 869 0395 14       		.byte	0x14
 870 0396 07       		.byte	0x7
 871 0397 64       		.byte	0x64
 872 0398 E3030000 		.4byte	0x3e3
 873 039c 09       		.uleb128 0x9
 874 039d 50020000 		.4byte	.LASF52
 875 03a1 07       		.byte	0x7
 876 03a2 65       		.byte	0x65
 877 03a3 E3030000 		.4byte	0x3e3
 878 03a7 02       		.byte	0x2
 879 03a8 23       		.byte	0x23
 880 03a9 00       		.uleb128 0
 881 03aa 09       		.uleb128 0x9
 882 03ab FF010000 		.4byte	.LASF53
 883 03af 07       		.byte	0x7
 884 03b0 67       		.byte	0x67
 885 03b1 E3030000 		.4byte	0x3e3
 886 03b5 02       		.byte	0x2
 887 03b6 23       		.byte	0x23
 888 03b7 04       		.uleb128 0x4
 889 03b8 09       		.uleb128 0x9
 890 03b9 EF030000 		.4byte	.LASF54
 891 03bd 07       		.byte	0x7
 892 03be 69       		.byte	0x69
 893 03bf 19010000 		.4byte	0x119
 894 03c3 02       		.byte	0x2
 895 03c4 23       		.byte	0x23
 896 03c5 08       		.uleb128 0x8
ARM GAS  /tmp/ccNobEQL.s 			page 17


 897 03c6 09       		.uleb128 0x9
 898 03c7 A2080000 		.4byte	.LASF55
 899 03cb 07       		.byte	0x7
 900 03cc 6A       		.byte	0x6a
 901 03cd 68030000 		.4byte	0x368
 902 03d1 02       		.byte	0x2
 903 03d2 23       		.byte	0x23
 904 03d3 0C       		.uleb128 0xc
 905 03d4 09       		.uleb128 0x9
 906 03d5 62070000 		.4byte	.LASF56
 907 03d9 07       		.byte	0x7
 908 03da 6C       		.byte	0x6c
 909 03db 68000000 		.4byte	0x68
 910 03df 02       		.byte	0x2
 911 03e0 23       		.byte	0x23
 912 03e1 10       		.uleb128 0x10
 913 03e2 00       		.byte	0
 914 03e3 05       		.uleb128 0x5
 915 03e4 04       		.byte	0x4
 916 03e5 85030000 		.4byte	0x385
 917 03e9 0B       		.uleb128 0xb
 918 03ea 10       		.byte	0x10
 919 03eb 07       		.byte	0x7
 920 03ec 76       		.byte	0x76
 921 03ed 2A040000 		.4byte	0x42a
 922 03f1 09       		.uleb128 0x9
 923 03f2 50020000 		.4byte	.LASF52
 924 03f6 07       		.byte	0x7
 925 03f7 77       		.byte	0x77
 926 03f8 E3030000 		.4byte	0x3e3
 927 03fc 02       		.byte	0x2
 928 03fd 23       		.byte	0x23
 929 03fe 00       		.uleb128 0
 930 03ff 09       		.uleb128 0x9
 931 0400 FF010000 		.4byte	.LASF53
 932 0404 07       		.byte	0x7
 933 0405 79       		.byte	0x79
 934 0406 E3030000 		.4byte	0x3e3
 935 040a 02       		.byte	0x2
 936 040b 23       		.byte	0x23
 937 040c 04       		.uleb128 0x4
 938 040d 09       		.uleb128 0x9
 939 040e EF030000 		.4byte	.LASF54
 940 0412 07       		.byte	0x7
 941 0413 7B       		.byte	0x7b
 942 0414 19010000 		.4byte	0x119
 943 0418 02       		.byte	0x2
 944 0419 23       		.byte	0x23
 945 041a 08       		.uleb128 0x8
 946 041b 09       		.uleb128 0x9
 947 041c DC050000 		.4byte	.LASF57
 948 0420 07       		.byte	0x7
 949 0421 7C       		.byte	0x7c
 950 0422 2A040000 		.4byte	0x42a
 951 0426 02       		.byte	0x2
 952 0427 23       		.byte	0x23
 953 0428 0C       		.uleb128 0xc
ARM GAS  /tmp/ccNobEQL.s 			page 18


 954 0429 00       		.byte	0
 955 042a 10       		.uleb128 0x10
 956 042b 19010000 		.4byte	0x119
 957 042f 07       		.uleb128 0x7
 958 0430 59080000 		.4byte	.LASF58
 959 0434 07       		.byte	0x7
 960 0435 7D       		.byte	0x7d
 961 0436 E9030000 		.4byte	0x3e9
 962 043a 0B       		.uleb128 0xb
 963 043b 1C       		.byte	0x1c
 964 043c 08       		.byte	0x8
 965 043d 5E       		.byte	0x5e
 966 043e 97040000 		.4byte	0x497
 967 0442 09       		.uleb128 0x9
 968 0443 D4050000 		.4byte	.LASF59
 969 0447 08       		.byte	0x8
 970 0448 5F       		.byte	0x5f
 971 0449 7F020000 		.4byte	0x27f
 972 044d 02       		.byte	0x2
 973 044e 23       		.byte	0x23
 974 044f 00       		.uleb128 0
 975 0450 09       		.uleb128 0x9
 976 0451 87050000 		.4byte	.LASF60
 977 0455 08       		.byte	0x8
 978 0456 60       		.byte	0x60
 979 0457 F8000000 		.4byte	0xf8
 980 045b 02       		.byte	0x2
 981 045c 23       		.byte	0x23
 982 045d 08       		.uleb128 0x8
 983 045e 09       		.uleb128 0x9
 984 045f 46040000 		.4byte	.LASF61
 985 0463 08       		.byte	0x8
 986 0464 62       		.byte	0x62
 987 0465 45030000 		.4byte	0x345
 988 0469 02       		.byte	0x2
 989 046a 23       		.byte	0x23
 990 046b 0C       		.uleb128 0xc
 991 046c 09       		.uleb128 0x9
 992 046d B7010000 		.4byte	.LASF62
 993 0471 08       		.byte	0x8
 994 0472 65       		.byte	0x65
 995 0473 79020000 		.4byte	0x279
 996 0477 02       		.byte	0x2
 997 0478 23       		.byte	0x23
 998 0479 10       		.uleb128 0x10
 999 047a 09       		.uleb128 0x9
 1000 047b 6F040000 		.4byte	.LASF63
 1001 047f 08       		.byte	0x8
 1002 0480 66       		.byte	0x66
 1003 0481 79020000 		.4byte	0x279
 1004 0485 02       		.byte	0x2
 1005 0486 23       		.byte	0x23
 1006 0487 14       		.uleb128 0x14
 1007 0488 09       		.uleb128 0x9
 1008 0489 65040000 		.4byte	.LASF64
 1009 048d 08       		.byte	0x8
 1010 048e 69       		.byte	0x69
ARM GAS  /tmp/ccNobEQL.s 			page 19


 1011 048f 79020000 		.4byte	0x279
 1012 0493 02       		.byte	0x2
 1013 0494 23       		.byte	0x23
 1014 0495 18       		.uleb128 0x18
 1015 0496 00       		.byte	0
 1016 0497 07       		.uleb128 0x7
 1017 0498 A4070000 		.4byte	.LASF65
 1018 049c 08       		.byte	0x8
 1019 049d 6B       		.byte	0x6b
 1020 049e 3A040000 		.4byte	0x43a
 1021 04a2 08       		.uleb128 0x8
 1022 04a3 32040000 		.4byte	.LASF66
 1023 04a7 10       		.byte	0x10
 1024 04a8 09       		.byte	0x9
 1025 04a9 2C       		.byte	0x2c
 1026 04aa D9040000 		.4byte	0x4d9
 1027 04ae 09       		.uleb128 0x9
 1028 04af 24010000 		.4byte	.LASF67
 1029 04b3 09       		.byte	0x9
 1030 04b4 2D       		.byte	0x2d
 1031 04b5 7F020000 		.4byte	0x27f
 1032 04b9 02       		.byte	0x2
 1033 04ba 23       		.byte	0x23
 1034 04bb 00       		.uleb128 0
 1035 04bc 09       		.uleb128 0x9
 1036 04bd 94080000 		.4byte	.LASF68
 1037 04c1 09       		.byte	0x9
 1038 04c2 2F       		.byte	0x2f
 1039 04c3 79020000 		.4byte	0x279
 1040 04c7 02       		.byte	0x2
 1041 04c8 23       		.byte	0x23
 1042 04c9 08       		.uleb128 0x8
 1043 04ca 09       		.uleb128 0x9
 1044 04cb B6060000 		.4byte	.LASF69
 1045 04cf 09       		.byte	0x9
 1046 04d0 31       		.byte	0x31
 1047 04d1 D9040000 		.4byte	0x4d9
 1048 04d5 02       		.byte	0x2
 1049 04d6 23       		.byte	0x23
 1050 04d7 0C       		.uleb128 0xc
 1051 04d8 00       		.byte	0
 1052 04d9 05       		.uleb128 0x5
 1053 04da 04       		.byte	0x4
 1054 04db A2040000 		.4byte	0x4a2
 1055 04df 07       		.uleb128 0x7
 1056 04e0 32040000 		.4byte	.LASF66
 1057 04e4 09       		.byte	0x9
 1058 04e5 33       		.byte	0x33
 1059 04e6 A2040000 		.4byte	0x4a2
 1060 04ea 11       		.uleb128 0x11
 1061 04eb 04       		.byte	0x4
 1062 04ec 05       		.byte	0x5
 1063 04ed 96       		.byte	0x96
 1064 04ee 1F050000 		.4byte	0x51f
 1065 04f2 12       		.uleb128 0x12
 1066 04f3 38000000 		.4byte	.LASF70
 1067 04f7 05       		.byte	0x5
ARM GAS  /tmp/ccNobEQL.s 			page 20


 1068 04f8 9D       		.byte	0x9d
 1069 04f9 03010000 		.4byte	0x103
 1070 04fd 12       		.uleb128 0x12
 1071 04fe A7010000 		.4byte	.LASF71
 1072 0502 05       		.byte	0x5
 1073 0503 A4       		.byte	0xa4
 1074 0504 03010000 		.4byte	0x103
 1075 0508 12       		.uleb128 0x12
 1076 0509 28080000 		.4byte	.LASF72
 1077 050d 05       		.byte	0x5
 1078 050e AB       		.byte	0xab
 1079 050f 68000000 		.4byte	0x68
 1080 0513 12       		.uleb128 0x12
 1081 0514 8E050000 		.4byte	.LASF73
 1082 0518 05       		.byte	0x5
 1083 0519 B2       		.byte	0xb2
 1084 051a 0E010000 		.4byte	0x10e
 1085 051e 00       		.byte	0
 1086 051f 05       		.uleb128 0x5
 1087 0520 04       		.byte	0x4
 1088 0521 DF040000 		.4byte	0x4df
 1089 0525 10       		.uleb128 0x10
 1090 0526 A4000000 		.4byte	0xa4
 1091 052a 13       		.uleb128 0x13
 1092 052b 01       		.byte	0x1
 1093 052c 0A       		.byte	0xa
 1094 052d 8D       		.byte	0x8d
 1095 052e 87050000 		.4byte	0x587
 1096 0532 14       		.uleb128 0x14
 1097 0533 8A040000 		.4byte	.LASF74
 1098 0537 7F       		.sleb128 -1
 1099 0538 14       		.uleb128 0x14
 1100 0539 2F030000 		.4byte	.LASF75
 1101 053d 00       		.sleb128 0
 1102 053e 14       		.uleb128 0x14
 1103 053f 3D030000 		.4byte	.LASF76
 1104 0543 01       		.sleb128 1
 1105 0544 14       		.uleb128 0x14
 1106 0545 4B030000 		.4byte	.LASF77
 1107 0549 02       		.sleb128 2
 1108 054a 14       		.uleb128 0x14
 1109 054b 59030000 		.4byte	.LASF78
 1110 054f 03       		.sleb128 3
 1111 0550 14       		.uleb128 0x14
 1112 0551 67030000 		.4byte	.LASF79
 1113 0555 04       		.sleb128 4
 1114 0556 14       		.uleb128 0x14
 1115 0557 75030000 		.4byte	.LASF80
 1116 055b 05       		.sleb128 5
 1117 055c 14       		.uleb128 0x14
 1118 055d 83030000 		.4byte	.LASF81
 1119 0561 06       		.sleb128 6
 1120 0562 14       		.uleb128 0x14
 1121 0563 6B010000 		.4byte	.LASF82
 1122 0567 07       		.sleb128 7
 1123 0568 14       		.uleb128 0x14
 1124 0569 A9030000 		.4byte	.LASF83
ARM GAS  /tmp/ccNobEQL.s 			page 21


 1125 056d 08       		.sleb128 8
 1126 056e 14       		.uleb128 0x14
 1127 056f 71060000 		.4byte	.LASF84
 1128 0573 09       		.sleb128 9
 1129 0574 14       		.uleb128 0x14
 1130 0575 80060000 		.4byte	.LASF85
 1131 0579 0A       		.sleb128 10
 1132 057a 14       		.uleb128 0x14
 1133 057b 8F060000 		.4byte	.LASF86
 1134 057f 0B       		.sleb128 11
 1135 0580 14       		.uleb128 0x14
 1136 0581 A4000000 		.4byte	.LASF87
 1137 0585 0C       		.sleb128 12
 1138 0586 00       		.byte	0
 1139 0587 07       		.uleb128 0x7
 1140 0588 BB080000 		.4byte	.LASF88
 1141 058c 0A       		.byte	0xa
 1142 058d 9D       		.byte	0x9d
 1143 058e 2A050000 		.4byte	0x52a
 1144 0592 13       		.uleb128 0x13
 1145 0593 01       		.byte	0x1
 1146 0594 0A       		.byte	0xa
 1147 0595 A2       		.byte	0xa2
 1148 0596 A7050000 		.4byte	0x5a7
 1149 059a 14       		.uleb128 0x14
 1150 059b AA080000 		.4byte	.LASF89
 1151 059f 00       		.sleb128 0
 1152 05a0 14       		.uleb128 0x14
 1153 05a1 89000000 		.4byte	.LASF90
 1154 05a5 01       		.sleb128 1
 1155 05a6 00       		.byte	0
 1156 05a7 13       		.uleb128 0x13
 1157 05a8 01       		.byte	0x1
 1158 05a9 0B       		.byte	0xb
 1159 05aa 63       		.byte	0x63
 1160 05ab C8050000 		.4byte	0x5c8
 1161 05af 14       		.uleb128 0x14
 1162 05b0 77040000 		.4byte	.LASF91
 1163 05b4 00       		.sleb128 0
 1164 05b5 14       		.uleb128 0x14
 1165 05b6 48000000 		.4byte	.LASF92
 1166 05ba 01       		.sleb128 1
 1167 05bb 14       		.uleb128 0x14
 1168 05bc A9040000 		.4byte	.LASF93
 1169 05c0 02       		.sleb128 2
 1170 05c1 14       		.uleb128 0x14
 1171 05c2 9B040000 		.4byte	.LASF94
 1172 05c6 03       		.sleb128 3
 1173 05c7 00       		.byte	0
 1174 05c8 07       		.uleb128 0x7
 1175 05c9 D3040000 		.4byte	.LASF95
 1176 05cd 0B       		.byte	0xb
 1177 05ce 68       		.byte	0x68
 1178 05cf A7050000 		.4byte	0x5a7
 1179 05d3 13       		.uleb128 0x13
 1180 05d4 01       		.byte	0x1
 1181 05d5 0B       		.byte	0xb
ARM GAS  /tmp/ccNobEQL.s 			page 22


 1182 05d6 6D       		.byte	0x6d
 1183 05d7 24060000 		.4byte	0x624
 1184 05db 14       		.uleb128 0x14
 1185 05dc 03080000 		.4byte	.LASF96
 1186 05e0 7F       		.sleb128 -1
 1187 05e1 14       		.uleb128 0x14
 1188 05e2 75020000 		.4byte	.LASF97
 1189 05e6 00       		.sleb128 0
 1190 05e7 14       		.uleb128 0x14
 1191 05e8 81020000 		.4byte	.LASF98
 1192 05ec 01       		.sleb128 1
 1193 05ed 14       		.uleb128 0x14
 1194 05ee 0B000000 		.4byte	.LASF99
 1195 05f2 02       		.sleb128 2
 1196 05f3 14       		.uleb128 0x14
 1197 05f4 98020000 		.4byte	.LASF100
 1198 05f8 03       		.sleb128 3
 1199 05f9 14       		.uleb128 0x14
 1200 05fa A4020000 		.4byte	.LASF101
 1201 05fe 04       		.sleb128 4
 1202 05ff 14       		.uleb128 0x14
 1203 0600 B0020000 		.4byte	.LASF102
 1204 0604 05       		.sleb128 5
 1205 0605 14       		.uleb128 0x14
 1206 0606 BC020000 		.4byte	.LASF103
 1207 060a 06       		.sleb128 6
 1208 060b 14       		.uleb128 0x14
 1209 060c C8020000 		.4byte	.LASF104
 1210 0610 07       		.sleb128 7
 1211 0611 14       		.uleb128 0x14
 1212 0612 D4020000 		.4byte	.LASF105
 1213 0616 08       		.sleb128 8
 1214 0617 14       		.uleb128 0x14
 1215 0618 79010000 		.4byte	.LASF106
 1216 061c 09       		.sleb128 9
 1217 061d 14       		.uleb128 0x14
 1218 061e 07030000 		.4byte	.LASF107
 1219 0622 0A       		.sleb128 10
 1220 0623 00       		.byte	0
 1221 0624 07       		.uleb128 0x7
 1222 0625 DA030000 		.4byte	.LASF108
 1223 0629 0B       		.byte	0xb
 1224 062a 7B       		.byte	0x7b
 1225 062b D3050000 		.4byte	0x5d3
 1226 062f 13       		.uleb128 0x13
 1227 0630 01       		.byte	0x1
 1228 0631 0C       		.byte	0xc
 1229 0632 46       		.byte	0x46
 1230 0633 75060000 		.4byte	0x675
 1231 0637 14       		.uleb128 0x14
 1232 0638 C5040000 		.4byte	.LASF109
 1233 063c 00       		.sleb128 0
 1234 063d 14       		.uleb128 0x14
 1235 063e 0F060000 		.4byte	.LASF110
 1236 0642 01       		.sleb128 1
 1237 0643 14       		.uleb128 0x14
 1238 0644 1D060000 		.4byte	.LASF111
ARM GAS  /tmp/ccNobEQL.s 			page 23


 1239 0648 02       		.sleb128 2
 1240 0649 14       		.uleb128 0x14
 1241 064a 2B060000 		.4byte	.LASF112
 1242 064e 03       		.sleb128 3
 1243 064f 14       		.uleb128 0x14
 1244 0650 39060000 		.4byte	.LASF113
 1245 0654 04       		.sleb128 4
 1246 0655 14       		.uleb128 0x14
 1247 0656 47060000 		.4byte	.LASF114
 1248 065a 05       		.sleb128 5
 1249 065b 14       		.uleb128 0x14
 1250 065c 55060000 		.4byte	.LASF115
 1251 0660 06       		.sleb128 6
 1252 0661 14       		.uleb128 0x14
 1253 0662 63060000 		.4byte	.LASF116
 1254 0666 07       		.sleb128 7
 1255 0667 14       		.uleb128 0x14
 1256 0668 EE010000 		.4byte	.LASF117
 1257 066c 08       		.sleb128 8
 1258 066d 14       		.uleb128 0x14
 1259 066e DF070000 		.4byte	.LASF118
 1260 0672 E300     		.sleb128 99
 1261 0674 00       		.byte	0
 1262 0675 13       		.uleb128 0x13
 1263 0676 01       		.byte	0x1
 1264 0677 0D       		.byte	0xd
 1265 0678 3A       		.byte	0x3a
 1266 0679 B4060000 		.4byte	0x6b4
 1267 067d 14       		.uleb128 0x14
 1268 067e D3010000 		.4byte	.LASF119
 1269 0682 00       		.sleb128 0
 1270 0683 14       		.uleb128 0x14
 1271 0684 72000000 		.4byte	.LASF120
 1272 0688 01       		.sleb128 1
 1273 0689 14       		.uleb128 0x14
 1274 068a 91030000 		.4byte	.LASF121
 1275 068e 02       		.sleb128 2
 1276 068f 14       		.uleb128 0x14
 1277 0690 FF060000 		.4byte	.LASF122
 1278 0694 03       		.sleb128 3
 1279 0695 14       		.uleb128 0x14
 1280 0696 2C070000 		.4byte	.LASF123
 1281 069a 04       		.sleb128 4
 1282 069b 14       		.uleb128 0x14
 1283 069c 45080000 		.4byte	.LASF124
 1284 06a0 05       		.sleb128 5
 1285 06a1 14       		.uleb128 0x14
 1286 06a2 B7040000 		.4byte	.LASF125
 1287 06a6 06       		.sleb128 6
 1288 06a7 14       		.uleb128 0x14
 1289 06a8 E1060000 		.4byte	.LASF126
 1290 06ac 07       		.sleb128 7
 1291 06ad 14       		.uleb128 0x14
 1292 06ae 7F070000 		.4byte	.LASF127
 1293 06b2 08       		.sleb128 8
 1294 06b3 00       		.byte	0
 1295 06b4 07       		.uleb128 0x7
ARM GAS  /tmp/ccNobEQL.s 			page 24


 1296 06b5 14030000 		.4byte	.LASF128
 1297 06b9 0D       		.byte	0xd
 1298 06ba 45       		.byte	0x45
 1299 06bb 75060000 		.4byte	0x675
 1300 06bf 13       		.uleb128 0x13
 1301 06c0 01       		.byte	0x1
 1302 06c1 0D       		.byte	0xd
 1303 06c2 50       		.byte	0x50
 1304 06c3 F2060000 		.4byte	0x6f2
 1305 06c7 14       		.uleb128 0x14
 1306 06c8 12080000 		.4byte	.LASF129
 1307 06cc 00       		.sleb128 0
 1308 06cd 14       		.uleb128 0x14
 1309 06ce 55000000 		.4byte	.LASF130
 1310 06d2 01       		.sleb128 1
 1311 06d3 14       		.uleb128 0x14
 1312 06d4 07020000 		.4byte	.LASF131
 1313 06d8 0A       		.sleb128 10
 1314 06d9 14       		.uleb128 0x14
 1315 06da 1A020000 		.4byte	.LASF132
 1316 06de 0B       		.sleb128 11
 1317 06df 14       		.uleb128 0x14
 1318 06e0 74050000 		.4byte	.LASF133
 1319 06e4 0C       		.sleb128 12
 1320 06e5 14       		.uleb128 0x14
 1321 06e6 01040000 		.4byte	.LASF134
 1322 06ea 0D       		.sleb128 13
 1323 06eb 14       		.uleb128 0x14
 1324 06ec C1000000 		.4byte	.LASF135
 1325 06f0 0E       		.sleb128 14
 1326 06f1 00       		.byte	0
 1327 06f2 07       		.uleb128 0x7
 1328 06f3 58020000 		.4byte	.LASF136
 1329 06f7 0D       		.byte	0xd
 1330 06f8 59       		.byte	0x59
 1331 06f9 BF060000 		.4byte	0x6bf
 1332 06fd 08       		.uleb128 0x8
 1333 06fe AC050000 		.4byte	.LASF137
 1334 0702 06       		.byte	0x6
 1335 0703 0D       		.byte	0xd
 1336 0704 5F       		.byte	0x5f
 1337 0705 42070000 		.4byte	0x742
 1338 0709 0A       		.uleb128 0xa
 1339 070a 70696E00 		.ascii	"pin\000"
 1340 070e 0D       		.byte	0xd
 1341 070f 60       		.byte	0x60
 1342 0710 87050000 		.4byte	0x587
 1343 0714 02       		.byte	0x2
 1344 0715 23       		.byte	0x23
 1345 0716 00       		.uleb128 0
 1346 0717 09       		.uleb128 0x9
 1347 0718 6D000000 		.4byte	.LASF138
 1348 071c 0D       		.byte	0xd
 1349 071d 61       		.byte	0x61
 1350 071e B4060000 		.4byte	0x6b4
 1351 0722 02       		.byte	0x2
 1352 0723 23       		.byte	0x23
ARM GAS  /tmp/ccNobEQL.s 			page 25


 1353 0724 01       		.uleb128 0x1
 1354 0725 0A       		.uleb128 0xa
 1355 0726 63666700 		.ascii	"cfg\000"
 1356 072a 0D       		.byte	0xd
 1357 072b 62       		.byte	0x62
 1358 072c F2060000 		.4byte	0x6f2
 1359 0730 02       		.byte	0x2
 1360 0731 23       		.byte	0x23
 1361 0732 02       		.uleb128 0x2
 1362 0733 09       		.uleb128 0x9
 1363 0734 F3050000 		.4byte	.LASF139
 1364 0738 0D       		.byte	0xd
 1365 0739 63       		.byte	0x63
 1366 073a 99000000 		.4byte	0x99
 1367 073e 02       		.byte	0x2
 1368 073f 23       		.byte	0x23
 1369 0740 04       		.uleb128 0x4
 1370 0741 00       		.byte	0
 1371 0742 07       		.uleb128 0x7
 1372 0743 74070000 		.4byte	.LASF140
 1373 0747 0D       		.byte	0xd
 1374 0748 64       		.byte	0x64
 1375 0749 FD060000 		.4byte	0x6fd
 1376 074d 08       		.uleb128 0x8
 1377 074e 81080000 		.4byte	.LASF141
 1378 0752 06       		.byte	0x6
 1379 0753 0D       		.byte	0xd
 1380 0754 6F       		.byte	0x6f
 1381 0755 A0070000 		.4byte	0x7a0
 1382 0759 09       		.uleb128 0x9
 1383 075a 19040000 		.4byte	.LASF142
 1384 075e 0D       		.byte	0xd
 1385 075f 70       		.byte	0x70
 1386 0760 24060000 		.4byte	0x624
 1387 0764 02       		.byte	0x2
 1388 0765 23       		.byte	0x23
 1389 0766 00       		.uleb128 0
 1390 0767 09       		.uleb128 0x9
 1391 0768 8E010000 		.4byte	.LASF143
 1392 076c 0D       		.byte	0xd
 1393 076d 71       		.byte	0x71
 1394 076e C8050000 		.4byte	0x5c8
 1395 0772 02       		.byte	0x2
 1396 0773 23       		.byte	0x23
 1397 0774 01       		.uleb128 0x1
 1398 0775 09       		.uleb128 0x9
 1399 0776 1E040000 		.4byte	.LASF144
 1400 077a 0D       		.byte	0xd
 1401 077b 72       		.byte	0x72
 1402 077c BA000000 		.4byte	0xba
 1403 0780 02       		.byte	0x2
 1404 0781 23       		.byte	0x23
 1405 0782 02       		.uleb128 0x2
 1406 0783 09       		.uleb128 0x9
 1407 0784 48010000 		.4byte	.LASF145
 1408 0788 0D       		.byte	0xd
 1409 0789 73       		.byte	0x73
ARM GAS  /tmp/ccNobEQL.s 			page 26


 1410 078a B4060000 		.4byte	0x6b4
 1411 078e 02       		.byte	0x2
 1412 078f 23       		.byte	0x23
 1413 0790 03       		.uleb128 0x3
 1414 0791 09       		.uleb128 0x9
 1415 0792 B8050000 		.4byte	.LASF146
 1416 0796 0D       		.byte	0xd
 1417 0797 74       		.byte	0x74
 1418 0798 8E000000 		.4byte	0x8e
 1419 079c 02       		.byte	0x2
 1420 079d 23       		.byte	0x23
 1421 079e 04       		.uleb128 0x4
 1422 079f 00       		.byte	0
 1423 07a0 07       		.uleb128 0x7
 1424 07a1 59040000 		.4byte	.LASF147
 1425 07a5 0D       		.byte	0xd
 1426 07a6 75       		.byte	0x75
 1427 07a7 4D070000 		.4byte	0x74d
 1428 07ab 13       		.uleb128 0x13
 1429 07ac 01       		.byte	0x1
 1430 07ad 0E       		.byte	0xe
 1431 07ae 3F       		.byte	0x3f
 1432 07af EC080000 		.4byte	0x8ec
 1433 07b3 15       		.uleb128 0x15
 1434 07b4 43683100 		.ascii	"Ch1\000"
 1435 07b8 00       		.sleb128 0
 1436 07b9 15       		.uleb128 0x15
 1437 07ba 43683200 		.ascii	"Ch2\000"
 1438 07be 01       		.sleb128 1
 1439 07bf 15       		.uleb128 0x15
 1440 07c0 43683300 		.ascii	"Ch3\000"
 1441 07c4 02       		.sleb128 2
 1442 07c5 15       		.uleb128 0x15
 1443 07c6 43683400 		.ascii	"Ch4\000"
 1444 07ca 03       		.sleb128 3
 1445 07cb 14       		.uleb128 0x14
 1446 07cc 13040000 		.4byte	.LASF148
 1447 07d0 04       		.sleb128 4
 1448 07d1 14       		.uleb128 0x14
 1449 07d2 A8060000 		.4byte	.LASF149
 1450 07d6 05       		.sleb128 5
 1451 07d7 14       		.uleb128 0x14
 1452 07d8 F9060000 		.4byte	.LASF150
 1453 07dc 06       		.sleb128 6
 1454 07dd 14       		.uleb128 0x14
 1455 07de DB060000 		.4byte	.LASF151
 1456 07e2 07       		.sleb128 7
 1457 07e3 14       		.uleb128 0x14
 1458 07e4 F8040000 		.4byte	.LASF152
 1459 07e8 08       		.sleb128 8
 1460 07e9 14       		.uleb128 0x14
 1461 07ea 3E050000 		.4byte	.LASF153
 1462 07ee 09       		.sleb128 9
 1463 07ef 14       		.uleb128 0x14
 1464 07f0 3F080000 		.4byte	.LASF154
 1465 07f4 0A       		.sleb128 10
 1466 07f5 14       		.uleb128 0x14
ARM GAS  /tmp/ccNobEQL.s 			page 27


 1467 07f6 22080000 		.4byte	.LASF155
 1468 07fa 0B       		.sleb128 11
 1469 07fb 14       		.uleb128 0x14
 1470 07fc F6020000 		.4byte	.LASF156
 1471 0800 0C       		.sleb128 12
 1472 0801 14       		.uleb128 0x14
 1473 0802 29030000 		.4byte	.LASF157
 1474 0806 0D       		.sleb128 13
 1475 0807 14       		.uleb128 0x14
 1476 0808 8E080000 		.4byte	.LASF158
 1477 080c 0E       		.sleb128 14
 1478 080d 14       		.uleb128 0x14
 1479 080e 38040000 		.4byte	.LASF159
 1480 0812 0F       		.sleb128 15
 1481 0813 14       		.uleb128 0x14
 1482 0814 B9070000 		.4byte	.LASF160
 1483 0818 10       		.sleb128 16
 1484 0819 14       		.uleb128 0x14
 1485 081a BF070000 		.4byte	.LASF161
 1486 081e 11       		.sleb128 17
 1487 081f 14       		.uleb128 0x14
 1488 0820 C5070000 		.4byte	.LASF162
 1489 0824 12       		.sleb128 18
 1490 0825 14       		.uleb128 0x14
 1491 0826 15070000 		.4byte	.LASF163
 1492 082a 13       		.sleb128 19
 1493 082b 14       		.uleb128 0x14
 1494 082c 1A070000 		.4byte	.LASF164
 1495 0830 14       		.sleb128 20
 1496 0831 14       		.uleb128 0x14
 1497 0832 1F070000 		.4byte	.LASF165
 1498 0836 15       		.sleb128 21
 1499 0837 14       		.uleb128 0x14
 1500 0838 FC020000 		.4byte	.LASF166
 1501 083c 16       		.sleb128 22
 1502 083d 14       		.uleb128 0x14
 1503 083e B0010000 		.4byte	.LASF167
 1504 0842 17       		.sleb128 23
 1505 0843 14       		.uleb128 0x14
 1506 0844 9B000000 		.4byte	.LASF168
 1507 0848 8001     		.sleb128 128
 1508 084a 14       		.uleb128 0x14
 1509 084b 36080000 		.4byte	.LASF169
 1510 084f 8101     		.sleb128 129
 1511 0851 14       		.uleb128 0x14
 1512 0852 3F000000 		.4byte	.LASF170
 1513 0856 8201     		.sleb128 130
 1514 0858 14       		.uleb128 0x14
 1515 0859 2C010000 		.4byte	.LASF171
 1516 085d 8301     		.sleb128 131
 1517 085f 14       		.uleb128 0x14
 1518 0860 00000000 		.4byte	.LASF172
 1519 0864 8401     		.sleb128 132
 1520 0866 14       		.uleb128 0x14
 1521 0867 AE070000 		.4byte	.LASF173
 1522 086b 8501     		.sleb128 133
 1523 086d 14       		.uleb128 0x14
ARM GAS  /tmp/ccNobEQL.s 			page 28


 1524 086e BF010000 		.4byte	.LASF174
 1525 0872 8601     		.sleb128 134
 1526 0874 14       		.uleb128 0x14
 1527 0875 57010000 		.4byte	.LASF175
 1528 0879 8701     		.sleb128 135
 1529 087b 14       		.uleb128 0x14
 1530 087c E4030000 		.4byte	.LASF176
 1531 0880 8801     		.sleb128 136
 1532 0882 14       		.uleb128 0x14
 1533 0883 E0020000 		.4byte	.LASF177
 1534 0887 8901     		.sleb128 137
 1535 0889 14       		.uleb128 0x14
 1536 088a EB020000 		.4byte	.LASF178
 1537 088e 8A01     		.sleb128 138
 1538 0890 14       		.uleb128 0x14
 1539 0891 6B080000 		.4byte	.LASF179
 1540 0895 8B01     		.sleb128 139
 1541 0897 14       		.uleb128 0x14
 1542 0898 CF030000 		.4byte	.LASF180
 1543 089c 8C01     		.sleb128 140
 1544 089e 14       		.uleb128 0x14
 1545 089f 6A020000 		.4byte	.LASF181
 1546 08a3 8D01     		.sleb128 141
 1547 08a5 14       		.uleb128 0x14
 1548 08a6 76080000 		.4byte	.LASF182
 1549 08aa 8E01     		.sleb128 142
 1550 08ac 14       		.uleb128 0x14
 1551 08ad 69070000 		.4byte	.LASF183
 1552 08b1 8F01     		.sleb128 143
 1553 08b3 14       		.uleb128 0x14
 1554 08b4 60080000 		.4byte	.LASF184
 1555 08b8 9001     		.sleb128 144
 1556 08ba 14       		.uleb128 0x14
 1557 08bb 3E070000 		.4byte	.LASF185
 1558 08bf 9101     		.sleb128 145
 1559 08c1 14       		.uleb128 0x14
 1560 08c2 27040000 		.4byte	.LASF186
 1561 08c6 9201     		.sleb128 146
 1562 08c8 14       		.uleb128 0x14
 1563 08c9 44050000 		.4byte	.LASF187
 1564 08cd 9301     		.sleb128 147
 1565 08cf 14       		.uleb128 0x14
 1566 08d0 9E060000 		.4byte	.LASF188
 1567 08d4 9401     		.sleb128 148
 1568 08d6 14       		.uleb128 0x14
 1569 08d7 9A070000 		.4byte	.LASF189
 1570 08db 9501     		.sleb128 149
 1571 08dd 14       		.uleb128 0x14
 1572 08de 50070000 		.4byte	.LASF190
 1573 08e2 9601     		.sleb128 150
 1574 08e4 14       		.uleb128 0x14
 1575 08e5 F7070000 		.4byte	.LASF191
 1576 08e9 9701     		.sleb128 151
 1577 08eb 00       		.byte	0
 1578 08ec 16       		.uleb128 0x16
 1579 08ed 01       		.byte	0x1
 1580 08ee 2B000000 		.4byte	.LASF192
ARM GAS  /tmp/ccNobEQL.s 			page 29


 1581 08f2 01       		.byte	0x1
 1582 08f3 56       		.byte	0x56
 1583 08f4 01       		.byte	0x1
 1584 08f5 00000000 		.4byte	.LFB63
 1585 08f9 22000000 		.4byte	.LFE63
 1586 08fd 00000000 		.4byte	.LLST0
 1587 0901 17       		.uleb128 0x17
 1588 0902 01       		.byte	0x1
 1589 0903 E2010000 		.4byte	.LASF193
 1590 0907 01       		.byte	0x1
 1591 0908 65       		.byte	0x65
 1592 0909 01       		.byte	0x1
 1593 090a 00000000 		.4byte	.LFB64
 1594 090e 02000000 		.4byte	.LFE64
 1595 0912 02       		.byte	0x2
 1596 0913 7D       		.byte	0x7d
 1597 0914 00       		.sleb128 0
 1598 0915 18       		.uleb128 0x18
 1599 0916 01       		.byte	0x1
 1600 0917 CB070000 		.4byte	.LASF194
 1601 091b 01       		.byte	0x1
 1602 091c 71       		.byte	0x71
 1603 091d 01       		.byte	0x1
 1604 091e 03010000 		.4byte	0x103
 1605 0922 00000000 		.4byte	.LFB65
 1606 0926 16000000 		.4byte	.LFE65
 1607 092a 20000000 		.4byte	.LLST1
 1608 092e 42090000 		.4byte	0x942
 1609 0932 19       		.uleb128 0x19
 1610 0933 61726700 		.ascii	"arg\000"
 1611 0937 01       		.byte	0x1
 1612 0938 71       		.byte	0x71
 1613 0939 68000000 		.4byte	0x68
 1614 093d 40000000 		.4byte	.LLST2
 1615 0941 00       		.byte	0
 1616 0942 18       		.uleb128 0x18
 1617 0943 01       		.byte	0x1
 1618 0944 2D020000 		.4byte	.LASF195
 1619 0948 01       		.byte	0x1
 1620 0949 8B       		.byte	0x8b
 1621 094a 01       		.byte	0x1
 1622 094b 03010000 		.4byte	0x103
 1623 094f 00000000 		.4byte	.LFB66
 1624 0953 D0000000 		.4byte	.LFE66
 1625 0957 53000000 		.4byte	.LLST3
 1626 095b 7E090000 		.4byte	0x97e
 1627 095f 19       		.uleb128 0x19
 1628 0960 61726700 		.ascii	"arg\000"
 1629 0964 01       		.byte	0x1
 1630 0965 8B       		.byte	0x8b
 1631 0966 68000000 		.4byte	0x68
 1632 096a 7F000000 		.4byte	.LLST4
 1633 096e 1A       		.uleb128 0x1a
 1634 096f 01030000 		.4byte	.LASF196
 1635 0973 01       		.byte	0x1
 1636 0974 8D       		.byte	0x8d
 1637 0975 8E000000 		.4byte	0x8e
ARM GAS  /tmp/ccNobEQL.s 			page 30


 1638 0979 92000000 		.4byte	.LLST5
 1639 097d 00       		.byte	0
 1640 097e 1B       		.uleb128 0x1b
 1641 097f 42070000 		.4byte	0x742
 1642 0983 8E090000 		.4byte	0x98e
 1643 0987 1C       		.uleb128 0x1c
 1644 0988 29000000 		.4byte	0x29
 1645 098c 0B       		.byte	0xb
 1646 098d 00       		.byte	0
 1647 098e 1D       		.uleb128 0x1d
 1648 098f 5A070000 		.4byte	.LASF197
 1649 0993 01       		.byte	0x1
 1650 0994 32       		.byte	0x32
 1651 0995 7E090000 		.4byte	0x97e
 1652 0999 05       		.byte	0x5
 1653 099a 03       		.byte	0x3
 1654 099b 00000000 		.4byte	dConfig
 1655 099f 1B       		.uleb128 0x1b
 1656 09a0 A0070000 		.4byte	0x7a0
 1657 09a4 AF090000 		.4byte	0x9af
 1658 09a8 1C       		.uleb128 0x1c
 1659 09a9 29000000 		.4byte	0x29
 1660 09ad 09       		.byte	0x9
 1661 09ae 00       		.byte	0
 1662 09af 1D       		.uleb128 0x1d
 1663 09b0 AE060000 		.4byte	.LASF198
 1664 09b4 01       		.byte	0x1
 1665 09b5 41       		.byte	0x41
 1666 09b6 9F090000 		.4byte	0x99f
 1667 09ba 05       		.byte	0x5
 1668 09bb 03       		.byte	0x3
 1669 09bc 00000000 		.4byte	mConfig
 1670 09c0 1E       		.uleb128 0x1e
 1671 09c1 66000000 		.4byte	.LASF199
 1672 09c5 07       		.byte	0x7
 1673 09c6 F5       		.byte	0xf5
 1674 09c7 2F040000 		.4byte	0x42f
 1675 09cb 01       		.byte	0x1
 1676 09cc 01       		.byte	0x1
 1677 09cd 1E       		.uleb128 0x1e
 1678 09ce D9070000 		.4byte	.LASF200
 1679 09d2 08       		.byte	0x8
 1680 09d3 6F       		.byte	0x6f
 1681 09d4 97040000 		.4byte	0x497
 1682 09d8 01       		.byte	0x1
 1683 09d9 01       		.byte	0x1
 1684 09da 1F       		.uleb128 0x1f
 1685 09db B4000000 		.4byte	.LASF201
 1686 09df 0F       		.byte	0xf
 1687 09e0 0706     		.2byte	0x607
 1688 09e2 25050000 		.4byte	0x525
 1689 09e6 01       		.byte	0x1
 1690 09e7 01       		.byte	0x1
 1691 09e8 00       		.byte	0
 1692              		.section	.debug_abbrev,"",%progbits
 1693              	.Ldebug_abbrev0:
 1694 0000 01       		.uleb128 0x1
ARM GAS  /tmp/ccNobEQL.s 			page 31


 1695 0001 11       		.uleb128 0x11
 1696 0002 01       		.byte	0x1
 1697 0003 25       		.uleb128 0x25
 1698 0004 0E       		.uleb128 0xe
 1699 0005 13       		.uleb128 0x13
 1700 0006 0B       		.uleb128 0xb
 1701 0007 03       		.uleb128 0x3
 1702 0008 0E       		.uleb128 0xe
 1703 0009 1B       		.uleb128 0x1b
 1704 000a 0E       		.uleb128 0xe
 1705 000b 11       		.uleb128 0x11
 1706 000c 01       		.uleb128 0x1
 1707 000d 52       		.uleb128 0x52
 1708 000e 01       		.uleb128 0x1
 1709 000f 55       		.uleb128 0x55
 1710 0010 06       		.uleb128 0x6
 1711 0011 10       		.uleb128 0x10
 1712 0012 06       		.uleb128 0x6
 1713 0013 00       		.byte	0
 1714 0014 00       		.byte	0
 1715 0015 02       		.uleb128 0x2
 1716 0016 24       		.uleb128 0x24
 1717 0017 00       		.byte	0
 1718 0018 0B       		.uleb128 0xb
 1719 0019 0B       		.uleb128 0xb
 1720 001a 3E       		.uleb128 0x3e
 1721 001b 0B       		.uleb128 0xb
 1722 001c 03       		.uleb128 0x3
 1723 001d 0E       		.uleb128 0xe
 1724 001e 00       		.byte	0
 1725 001f 00       		.byte	0
 1726 0020 03       		.uleb128 0x3
 1727 0021 24       		.uleb128 0x24
 1728 0022 00       		.byte	0
 1729 0023 0B       		.uleb128 0xb
 1730 0024 0B       		.uleb128 0xb
 1731 0025 3E       		.uleb128 0x3e
 1732 0026 0B       		.uleb128 0xb
 1733 0027 03       		.uleb128 0x3
 1734 0028 08       		.uleb128 0x8
 1735 0029 00       		.byte	0
 1736 002a 00       		.byte	0
 1737 002b 04       		.uleb128 0x4
 1738 002c 0F       		.uleb128 0xf
 1739 002d 00       		.byte	0
 1740 002e 0B       		.uleb128 0xb
 1741 002f 0B       		.uleb128 0xb
 1742 0030 00       		.byte	0
 1743 0031 00       		.byte	0
 1744 0032 05       		.uleb128 0x5
 1745 0033 0F       		.uleb128 0xf
 1746 0034 00       		.byte	0
 1747 0035 0B       		.uleb128 0xb
 1748 0036 0B       		.uleb128 0xb
 1749 0037 49       		.uleb128 0x49
 1750 0038 13       		.uleb128 0x13
 1751 0039 00       		.byte	0
ARM GAS  /tmp/ccNobEQL.s 			page 32


 1752 003a 00       		.byte	0
 1753 003b 06       		.uleb128 0x6
 1754 003c 26       		.uleb128 0x26
 1755 003d 00       		.byte	0
 1756 003e 49       		.uleb128 0x49
 1757 003f 13       		.uleb128 0x13
 1758 0040 00       		.byte	0
 1759 0041 00       		.byte	0
 1760 0042 07       		.uleb128 0x7
 1761 0043 16       		.uleb128 0x16
 1762 0044 00       		.byte	0
 1763 0045 03       		.uleb128 0x3
 1764 0046 0E       		.uleb128 0xe
 1765 0047 3A       		.uleb128 0x3a
 1766 0048 0B       		.uleb128 0xb
 1767 0049 3B       		.uleb128 0x3b
 1768 004a 0B       		.uleb128 0xb
 1769 004b 49       		.uleb128 0x49
 1770 004c 13       		.uleb128 0x13
 1771 004d 00       		.byte	0
 1772 004e 00       		.byte	0
 1773 004f 08       		.uleb128 0x8
 1774 0050 13       		.uleb128 0x13
 1775 0051 01       		.byte	0x1
 1776 0052 03       		.uleb128 0x3
 1777 0053 0E       		.uleb128 0xe
 1778 0054 0B       		.uleb128 0xb
 1779 0055 0B       		.uleb128 0xb
 1780 0056 3A       		.uleb128 0x3a
 1781 0057 0B       		.uleb128 0xb
 1782 0058 3B       		.uleb128 0x3b
 1783 0059 0B       		.uleb128 0xb
 1784 005a 01       		.uleb128 0x1
 1785 005b 13       		.uleb128 0x13
 1786 005c 00       		.byte	0
 1787 005d 00       		.byte	0
 1788 005e 09       		.uleb128 0x9
 1789 005f 0D       		.uleb128 0xd
 1790 0060 00       		.byte	0
 1791 0061 03       		.uleb128 0x3
 1792 0062 0E       		.uleb128 0xe
 1793 0063 3A       		.uleb128 0x3a
 1794 0064 0B       		.uleb128 0xb
 1795 0065 3B       		.uleb128 0x3b
 1796 0066 0B       		.uleb128 0xb
 1797 0067 49       		.uleb128 0x49
 1798 0068 13       		.uleb128 0x13
 1799 0069 38       		.uleb128 0x38
 1800 006a 0A       		.uleb128 0xa
 1801 006b 00       		.byte	0
 1802 006c 00       		.byte	0
 1803 006d 0A       		.uleb128 0xa
 1804 006e 0D       		.uleb128 0xd
 1805 006f 00       		.byte	0
 1806 0070 03       		.uleb128 0x3
 1807 0071 08       		.uleb128 0x8
 1808 0072 3A       		.uleb128 0x3a
ARM GAS  /tmp/ccNobEQL.s 			page 33


 1809 0073 0B       		.uleb128 0xb
 1810 0074 3B       		.uleb128 0x3b
 1811 0075 0B       		.uleb128 0xb
 1812 0076 49       		.uleb128 0x49
 1813 0077 13       		.uleb128 0x13
 1814 0078 38       		.uleb128 0x38
 1815 0079 0A       		.uleb128 0xa
 1816 007a 00       		.byte	0
 1817 007b 00       		.byte	0
 1818 007c 0B       		.uleb128 0xb
 1819 007d 13       		.uleb128 0x13
 1820 007e 01       		.byte	0x1
 1821 007f 0B       		.uleb128 0xb
 1822 0080 0B       		.uleb128 0xb
 1823 0081 3A       		.uleb128 0x3a
 1824 0082 0B       		.uleb128 0xb
 1825 0083 3B       		.uleb128 0x3b
 1826 0084 0B       		.uleb128 0xb
 1827 0085 01       		.uleb128 0x1
 1828 0086 13       		.uleb128 0x13
 1829 0087 00       		.byte	0
 1830 0088 00       		.byte	0
 1831 0089 0C       		.uleb128 0xc
 1832 008a 13       		.uleb128 0x13
 1833 008b 01       		.byte	0x1
 1834 008c 03       		.uleb128 0x3
 1835 008d 0E       		.uleb128 0xe
 1836 008e 0B       		.uleb128 0xb
 1837 008f 0B       		.uleb128 0xb
 1838 0090 3A       		.uleb128 0x3a
 1839 0091 0B       		.uleb128 0xb
 1840 0092 3B       		.uleb128 0x3b
 1841 0093 05       		.uleb128 0x5
 1842 0094 01       		.uleb128 0x1
 1843 0095 13       		.uleb128 0x13
 1844 0096 00       		.byte	0
 1845 0097 00       		.byte	0
 1846 0098 0D       		.uleb128 0xd
 1847 0099 0D       		.uleb128 0xd
 1848 009a 00       		.byte	0
 1849 009b 03       		.uleb128 0x3
 1850 009c 08       		.uleb128 0x8
 1851 009d 3A       		.uleb128 0x3a
 1852 009e 0B       		.uleb128 0xb
 1853 009f 3B       		.uleb128 0x3b
 1854 00a0 05       		.uleb128 0x5
 1855 00a1 49       		.uleb128 0x49
 1856 00a2 13       		.uleb128 0x13
 1857 00a3 38       		.uleb128 0x38
 1858 00a4 0A       		.uleb128 0xa
 1859 00a5 00       		.byte	0
 1860 00a6 00       		.byte	0
 1861 00a7 0E       		.uleb128 0xe
 1862 00a8 15       		.uleb128 0x15
 1863 00a9 01       		.byte	0x1
 1864 00aa 27       		.uleb128 0x27
 1865 00ab 0C       		.uleb128 0xc
ARM GAS  /tmp/ccNobEQL.s 			page 34


 1866 00ac 01       		.uleb128 0x1
 1867 00ad 13       		.uleb128 0x13
 1868 00ae 00       		.byte	0
 1869 00af 00       		.byte	0
 1870 00b0 0F       		.uleb128 0xf
 1871 00b1 05       		.uleb128 0x5
 1872 00b2 00       		.byte	0
 1873 00b3 49       		.uleb128 0x49
 1874 00b4 13       		.uleb128 0x13
 1875 00b5 00       		.byte	0
 1876 00b6 00       		.byte	0
 1877 00b7 10       		.uleb128 0x10
 1878 00b8 35       		.uleb128 0x35
 1879 00b9 00       		.byte	0
 1880 00ba 49       		.uleb128 0x49
 1881 00bb 13       		.uleb128 0x13
 1882 00bc 00       		.byte	0
 1883 00bd 00       		.byte	0
 1884 00be 11       		.uleb128 0x11
 1885 00bf 17       		.uleb128 0x17
 1886 00c0 01       		.byte	0x1
 1887 00c1 0B       		.uleb128 0xb
 1888 00c2 0B       		.uleb128 0xb
 1889 00c3 3A       		.uleb128 0x3a
 1890 00c4 0B       		.uleb128 0xb
 1891 00c5 3B       		.uleb128 0x3b
 1892 00c6 0B       		.uleb128 0xb
 1893 00c7 01       		.uleb128 0x1
 1894 00c8 13       		.uleb128 0x13
 1895 00c9 00       		.byte	0
 1896 00ca 00       		.byte	0
 1897 00cb 12       		.uleb128 0x12
 1898 00cc 0D       		.uleb128 0xd
 1899 00cd 00       		.byte	0
 1900 00ce 03       		.uleb128 0x3
 1901 00cf 0E       		.uleb128 0xe
 1902 00d0 3A       		.uleb128 0x3a
 1903 00d1 0B       		.uleb128 0xb
 1904 00d2 3B       		.uleb128 0x3b
 1905 00d3 0B       		.uleb128 0xb
 1906 00d4 49       		.uleb128 0x49
 1907 00d5 13       		.uleb128 0x13
 1908 00d6 00       		.byte	0
 1909 00d7 00       		.byte	0
 1910 00d8 13       		.uleb128 0x13
 1911 00d9 04       		.uleb128 0x4
 1912 00da 01       		.byte	0x1
 1913 00db 0B       		.uleb128 0xb
 1914 00dc 0B       		.uleb128 0xb
 1915 00dd 3A       		.uleb128 0x3a
 1916 00de 0B       		.uleb128 0xb
 1917 00df 3B       		.uleb128 0x3b
 1918 00e0 0B       		.uleb128 0xb
 1919 00e1 01       		.uleb128 0x1
 1920 00e2 13       		.uleb128 0x13
 1921 00e3 00       		.byte	0
 1922 00e4 00       		.byte	0
ARM GAS  /tmp/ccNobEQL.s 			page 35


 1923 00e5 14       		.uleb128 0x14
 1924 00e6 28       		.uleb128 0x28
 1925 00e7 00       		.byte	0
 1926 00e8 03       		.uleb128 0x3
 1927 00e9 0E       		.uleb128 0xe
 1928 00ea 1C       		.uleb128 0x1c
 1929 00eb 0D       		.uleb128 0xd
 1930 00ec 00       		.byte	0
 1931 00ed 00       		.byte	0
 1932 00ee 15       		.uleb128 0x15
 1933 00ef 28       		.uleb128 0x28
 1934 00f0 00       		.byte	0
 1935 00f1 03       		.uleb128 0x3
 1936 00f2 08       		.uleb128 0x8
 1937 00f3 1C       		.uleb128 0x1c
 1938 00f4 0D       		.uleb128 0xd
 1939 00f5 00       		.byte	0
 1940 00f6 00       		.byte	0
 1941 00f7 16       		.uleb128 0x16
 1942 00f8 2E       		.uleb128 0x2e
 1943 00f9 00       		.byte	0
 1944 00fa 3F       		.uleb128 0x3f
 1945 00fb 0C       		.uleb128 0xc
 1946 00fc 03       		.uleb128 0x3
 1947 00fd 0E       		.uleb128 0xe
 1948 00fe 3A       		.uleb128 0x3a
 1949 00ff 0B       		.uleb128 0xb
 1950 0100 3B       		.uleb128 0x3b
 1951 0101 0B       		.uleb128 0xb
 1952 0102 27       		.uleb128 0x27
 1953 0103 0C       		.uleb128 0xc
 1954 0104 11       		.uleb128 0x11
 1955 0105 01       		.uleb128 0x1
 1956 0106 12       		.uleb128 0x12
 1957 0107 01       		.uleb128 0x1
 1958 0108 40       		.uleb128 0x40
 1959 0109 06       		.uleb128 0x6
 1960 010a 00       		.byte	0
 1961 010b 00       		.byte	0
 1962 010c 17       		.uleb128 0x17
 1963 010d 2E       		.uleb128 0x2e
 1964 010e 00       		.byte	0
 1965 010f 3F       		.uleb128 0x3f
 1966 0110 0C       		.uleb128 0xc
 1967 0111 03       		.uleb128 0x3
 1968 0112 0E       		.uleb128 0xe
 1969 0113 3A       		.uleb128 0x3a
 1970 0114 0B       		.uleb128 0xb
 1971 0115 3B       		.uleb128 0x3b
 1972 0116 0B       		.uleb128 0xb
 1973 0117 27       		.uleb128 0x27
 1974 0118 0C       		.uleb128 0xc
 1975 0119 11       		.uleb128 0x11
 1976 011a 01       		.uleb128 0x1
 1977 011b 12       		.uleb128 0x12
 1978 011c 01       		.uleb128 0x1
 1979 011d 40       		.uleb128 0x40
ARM GAS  /tmp/ccNobEQL.s 			page 36


 1980 011e 0A       		.uleb128 0xa
 1981 011f 00       		.byte	0
 1982 0120 00       		.byte	0
 1983 0121 18       		.uleb128 0x18
 1984 0122 2E       		.uleb128 0x2e
 1985 0123 01       		.byte	0x1
 1986 0124 3F       		.uleb128 0x3f
 1987 0125 0C       		.uleb128 0xc
 1988 0126 03       		.uleb128 0x3
 1989 0127 0E       		.uleb128 0xe
 1990 0128 3A       		.uleb128 0x3a
 1991 0129 0B       		.uleb128 0xb
 1992 012a 3B       		.uleb128 0x3b
 1993 012b 0B       		.uleb128 0xb
 1994 012c 27       		.uleb128 0x27
 1995 012d 0C       		.uleb128 0xc
 1996 012e 49       		.uleb128 0x49
 1997 012f 13       		.uleb128 0x13
 1998 0130 11       		.uleb128 0x11
 1999 0131 01       		.uleb128 0x1
 2000 0132 12       		.uleb128 0x12
 2001 0133 01       		.uleb128 0x1
 2002 0134 40       		.uleb128 0x40
 2003 0135 06       		.uleb128 0x6
 2004 0136 01       		.uleb128 0x1
 2005 0137 13       		.uleb128 0x13
 2006 0138 00       		.byte	0
 2007 0139 00       		.byte	0
 2008 013a 19       		.uleb128 0x19
 2009 013b 05       		.uleb128 0x5
 2010 013c 00       		.byte	0
 2011 013d 03       		.uleb128 0x3
 2012 013e 08       		.uleb128 0x8
 2013 013f 3A       		.uleb128 0x3a
 2014 0140 0B       		.uleb128 0xb
 2015 0141 3B       		.uleb128 0x3b
 2016 0142 0B       		.uleb128 0xb
 2017 0143 49       		.uleb128 0x49
 2018 0144 13       		.uleb128 0x13
 2019 0145 02       		.uleb128 0x2
 2020 0146 06       		.uleb128 0x6
 2021 0147 00       		.byte	0
 2022 0148 00       		.byte	0
 2023 0149 1A       		.uleb128 0x1a
 2024 014a 34       		.uleb128 0x34
 2025 014b 00       		.byte	0
 2026 014c 03       		.uleb128 0x3
 2027 014d 0E       		.uleb128 0xe
 2028 014e 3A       		.uleb128 0x3a
 2029 014f 0B       		.uleb128 0xb
 2030 0150 3B       		.uleb128 0x3b
 2031 0151 0B       		.uleb128 0xb
 2032 0152 49       		.uleb128 0x49
 2033 0153 13       		.uleb128 0x13
 2034 0154 02       		.uleb128 0x2
 2035 0155 06       		.uleb128 0x6
 2036 0156 00       		.byte	0
ARM GAS  /tmp/ccNobEQL.s 			page 37


 2037 0157 00       		.byte	0
 2038 0158 1B       		.uleb128 0x1b
 2039 0159 01       		.uleb128 0x1
 2040 015a 01       		.byte	0x1
 2041 015b 49       		.uleb128 0x49
 2042 015c 13       		.uleb128 0x13
 2043 015d 01       		.uleb128 0x1
 2044 015e 13       		.uleb128 0x13
 2045 015f 00       		.byte	0
 2046 0160 00       		.byte	0
 2047 0161 1C       		.uleb128 0x1c
 2048 0162 21       		.uleb128 0x21
 2049 0163 00       		.byte	0
 2050 0164 49       		.uleb128 0x49
 2051 0165 13       		.uleb128 0x13
 2052 0166 2F       		.uleb128 0x2f
 2053 0167 0B       		.uleb128 0xb
 2054 0168 00       		.byte	0
 2055 0169 00       		.byte	0
 2056 016a 1D       		.uleb128 0x1d
 2057 016b 34       		.uleb128 0x34
 2058 016c 00       		.byte	0
 2059 016d 03       		.uleb128 0x3
 2060 016e 0E       		.uleb128 0xe
 2061 016f 3A       		.uleb128 0x3a
 2062 0170 0B       		.uleb128 0xb
 2063 0171 3B       		.uleb128 0x3b
 2064 0172 0B       		.uleb128 0xb
 2065 0173 49       		.uleb128 0x49
 2066 0174 13       		.uleb128 0x13
 2067 0175 02       		.uleb128 0x2
 2068 0176 0A       		.uleb128 0xa
 2069 0177 00       		.byte	0
 2070 0178 00       		.byte	0
 2071 0179 1E       		.uleb128 0x1e
 2072 017a 34       		.uleb128 0x34
 2073 017b 00       		.byte	0
 2074 017c 03       		.uleb128 0x3
 2075 017d 0E       		.uleb128 0xe
 2076 017e 3A       		.uleb128 0x3a
 2077 017f 0B       		.uleb128 0xb
 2078 0180 3B       		.uleb128 0x3b
 2079 0181 0B       		.uleb128 0xb
 2080 0182 49       		.uleb128 0x49
 2081 0183 13       		.uleb128 0x13
 2082 0184 3F       		.uleb128 0x3f
 2083 0185 0C       		.uleb128 0xc
 2084 0186 3C       		.uleb128 0x3c
 2085 0187 0C       		.uleb128 0xc
 2086 0188 00       		.byte	0
 2087 0189 00       		.byte	0
 2088 018a 1F       		.uleb128 0x1f
 2089 018b 34       		.uleb128 0x34
 2090 018c 00       		.byte	0
 2091 018d 03       		.uleb128 0x3
 2092 018e 0E       		.uleb128 0xe
 2093 018f 3A       		.uleb128 0x3a
ARM GAS  /tmp/ccNobEQL.s 			page 38


 2094 0190 0B       		.uleb128 0xb
 2095 0191 3B       		.uleb128 0x3b
 2096 0192 05       		.uleb128 0x5
 2097 0193 49       		.uleb128 0x49
 2098 0194 13       		.uleb128 0x13
 2099 0195 3F       		.uleb128 0x3f
 2100 0196 0C       		.uleb128 0xc
 2101 0197 3C       		.uleb128 0x3c
 2102 0198 0C       		.uleb128 0xc
 2103 0199 00       		.byte	0
 2104 019a 00       		.byte	0
 2105 019b 00       		.byte	0
 2106              		.section	.debug_loc,"",%progbits
 2107              	.Ldebug_loc0:
 2108              	.LLST0:
 2109 0000 00000000 		.4byte	.LFB63
 2110 0004 08000000 		.4byte	.LCFI0
 2111 0008 0200     		.2byte	0x2
 2112 000a 7D       		.byte	0x7d
 2113 000b 00       		.sleb128 0
 2114 000c 08000000 		.4byte	.LCFI0
 2115 0010 22000000 		.4byte	.LFE63
 2116 0014 0200     		.2byte	0x2
 2117 0016 7D       		.byte	0x7d
 2118 0017 08       		.sleb128 8
 2119 0018 00000000 		.4byte	0
 2120 001c 00000000 		.4byte	0
 2121              	.LLST1:
 2122 0020 00000000 		.4byte	.LFB65
 2123 0024 06000000 		.4byte	.LCFI1
 2124 0028 0200     		.2byte	0x2
 2125 002a 7D       		.byte	0x7d
 2126 002b 00       		.sleb128 0
 2127 002c 06000000 		.4byte	.LCFI1
 2128 0030 16000000 		.4byte	.LFE65
 2129 0034 0200     		.2byte	0x2
 2130 0036 7D       		.byte	0x7d
 2131 0037 08       		.sleb128 8
 2132 0038 00000000 		.4byte	0
 2133 003c 00000000 		.4byte	0
 2134              	.LLST2:
 2135 0040 00000000 		.4byte	.LVL0
 2136 0044 04000000 		.4byte	.LVL1
 2137 0048 0100     		.2byte	0x1
 2138 004a 50       		.byte	0x50
 2139 004b 00000000 		.4byte	0
 2140 004f 00000000 		.4byte	0
 2141              	.LLST3:
 2142 0053 00000000 		.4byte	.LFB66
 2143 0057 02000000 		.4byte	.LCFI2
 2144 005b 0200     		.2byte	0x2
 2145 005d 7D       		.byte	0x7d
 2146 005e 00       		.sleb128 0
 2147 005f 02000000 		.4byte	.LCFI2
 2148 0063 0C000000 		.4byte	.LCFI3
 2149 0067 0200     		.2byte	0x2
 2150 0069 7D       		.byte	0x7d
ARM GAS  /tmp/ccNobEQL.s 			page 39


 2151 006a 14       		.sleb128 20
 2152 006b 0C000000 		.4byte	.LCFI3
 2153 006f D0000000 		.4byte	.LFE66
 2154 0073 0200     		.2byte	0x2
 2155 0075 7D       		.byte	0x7d
 2156 0076 28       		.sleb128 40
 2157 0077 00000000 		.4byte	0
 2158 007b 00000000 		.4byte	0
 2159              	.LLST4:
 2160 007f 00000000 		.4byte	.LVL2
 2161 0083 06000000 		.4byte	.LVL3
 2162 0087 0100     		.2byte	0x1
 2163 0089 50       		.byte	0x50
 2164 008a 00000000 		.4byte	0
 2165 008e 00000000 		.4byte	0
 2166              	.LLST5:
 2167 0092 00000000 		.4byte	.LVL2
 2168 0096 2A000000 		.4byte	.LVL4
 2169 009a 0200     		.2byte	0x2
 2170 009c 30       		.byte	0x30
 2171 009d 9F       		.byte	0x9f
 2172 009e BC000000 		.4byte	.LVL5
 2173 00a2 C0000000 		.4byte	.LVL6
 2174 00a6 0100     		.2byte	0x1
 2175 00a8 54       		.byte	0x54
 2176 00a9 00000000 		.4byte	0
 2177 00ad 00000000 		.4byte	0
 2178              		.section	.debug_aranges,"",%progbits
 2179 0000 34000000 		.4byte	0x34
 2180 0004 0200     		.2byte	0x2
 2181 0006 00000000 		.4byte	.Ldebug_info0
 2182 000a 04       		.byte	0x4
 2183 000b 00       		.byte	0
 2184 000c 0000     		.2byte	0
 2185 000e 0000     		.2byte	0
 2186 0010 00000000 		.4byte	.LFB63
 2187 0014 22000000 		.4byte	.LFE63-.LFB63
 2188 0018 00000000 		.4byte	.LFB64
 2189 001c 02000000 		.4byte	.LFE64-.LFB64
 2190 0020 00000000 		.4byte	.LFB65
 2191 0024 16000000 		.4byte	.LFE65-.LFB65
 2192 0028 00000000 		.4byte	.LFB66
 2193 002c D0000000 		.4byte	.LFE66-.LFB66
 2194 0030 00000000 		.4byte	0
 2195 0034 00000000 		.4byte	0
 2196              		.section	.debug_ranges,"",%progbits
 2197              	.Ldebug_ranges0:
 2198 0000 00000000 		.4byte	.LFB63
 2199 0004 22000000 		.4byte	.LFE63
 2200 0008 00000000 		.4byte	.LFB64
 2201 000c 02000000 		.4byte	.LFE64
 2202 0010 00000000 		.4byte	.LFB65
 2203 0014 16000000 		.4byte	.LFE65
 2204 0018 00000000 		.4byte	.LFB66
 2205 001c D0000000 		.4byte	.LFE66
 2206 0020 00000000 		.4byte	0
 2207 0024 00000000 		.4byte	0
ARM GAS  /tmp/ccNobEQL.s 			page 40


 2208              		.section	.debug_line,"",%progbits
 2209              	.Ldebug_line0:
 2210 0000 34020000 		.section	.debug_str,"MS",%progbits,1
 2210      0200C401 
 2210      00000201 
 2210      FB0E0D00 
 2210      01010101 
 2211              	.LASF172:
 2212 0000 42746E38 		.ascii	"Btn8DXmtr2\000"
 2212      44586D74 
 2212      723200
 2213              	.LASF99:
 2214 000b 6B566578 		.ascii	"kVexMotor_3\000"
 2214      4D6F746F 
 2214      725F3300 
 2215              	.LASF51:
 2216 0017 56697274 		.ascii	"VirtualTimer\000"
 2216      75616C54 
 2216      696D6572 
 2216      00
 2217              	.LASF37:
 2218 0024 705F7469 		.ascii	"p_time\000"
 2218      6D6500
 2219              	.LASF192:
 2220 002b 76657855 		.ascii	"vexUserSetup\000"
 2220      73657253 
 2220      65747570 
 2220      00
 2221              	.LASF70:
 2222 0038 7264796D 		.ascii	"rdymsg\000"
 2222      736700
 2223              	.LASF170:
 2224 003f 43683358 		.ascii	"Ch3Xmtr2\000"
 2224      6D747232 
 2224      00
 2225              	.LASF92:
 2226 0048 6B566578 		.ascii	"kVexMotor269\000"
 2226      4D6F746F 
 2226      72323639 
 2226      00
 2227              	.LASF130:
 2228 0055 6B566578 		.ascii	"kVexConfigOutput\000"
 2228      436F6E66 
 2228      69674F75 
 2228      74707574 
 2228      00
 2229              	.LASF199:
 2230 0066 76746C69 		.ascii	"vtlist\000"
 2230      737400
 2231              	.LASF138:
 2232 006d 74797065 		.ascii	"type\000"
 2232      00
 2233              	.LASF120:
 2234 0072 6B566578 		.ascii	"kVexSensorDigitalInput\000"
 2234      53656E73 
 2234      6F724469 
 2234      67697461 
ARM GAS  /tmp/ccNobEQL.s 			page 41


 2234      6C496E70 
 2235              	.LASF90:
 2236 0089 6B566578 		.ascii	"kVexDigitalOutput\000"
 2236      44696769 
 2236      74616C4F 
 2236      75747075 
 2236      7400
 2237              	.LASF168:
 2238 009b 43683158 		.ascii	"Ch1Xmtr2\000"
 2238      6D747232 
 2238      00
 2239              	.LASF87:
 2240 00a4 6B566578 		.ascii	"kVexDigital_Num\000"
 2240      44696769 
 2240      74616C5F 
 2240      4E756D00 
 2241              	.LASF201:
 2242 00b4 49544D5F 		.ascii	"ITM_RxBuffer\000"
 2242      52784275 
 2242      66666572 
 2242      00
 2243              	.LASF135:
 2244 00c1 6B566578 		.ascii	"kVexConfigInterrupt\000"
 2244      436F6E66 
 2244      6967496E 
 2244      74657272 
 2244      75707400 
 2245              	.LASF15:
 2246 00d5 626F6F6C 		.ascii	"bool_t\000"
 2246      5F7400
 2247              	.LASF28:
 2248 00dc 705F7072 		.ascii	"p_prio\000"
 2248      696F00
 2249              	.LASF11:
 2250 00e3 696E7431 		.ascii	"int16_t\000"
 2250      365F7400 
 2251              	.LASF5:
 2252 00eb 6C6F6E67 		.ascii	"long long int\000"
 2252      206C6F6E 
 2252      6720696E 
 2252      7400
 2253              	.LASF1:
 2254 00f9 7369676E 		.ascii	"signed char\000"
 2254      65642063 
 2254      68617200 
 2255              	.LASF44:
 2256 0105 705F6D70 		.ascii	"p_mpool\000"
 2256      6F6F6C00 
 2257              	.LASF6:
 2258 010d 6C6F6E67 		.ascii	"long long unsigned int\000"
 2258      206C6F6E 
 2258      6720756E 
 2258      7369676E 
 2258      65642069 
 2259              	.LASF67:
 2260 0124 6D5F7175 		.ascii	"m_queue\000"
 2260      65756500 
ARM GAS  /tmp/ccNobEQL.s 			page 42


 2261              	.LASF171:
 2262 012c 43683458 		.ascii	"Ch4Xmtr2\000"
 2262      6D747232 
 2262      00
 2263              	.LASF20:
 2264 0135 74736C69 		.ascii	"tslices_t\000"
 2264      6365735F 
 2264      7400
 2265              	.LASF7:
 2266 013f 6C6F6E67 		.ascii	"long int\000"
 2266      20696E74 
 2266      00
 2267              	.LASF145:
 2268 0148 73747970 		.ascii	"stype\000"
 2268      6500
 2269              	.LASF18:
 2270 014e 74737461 		.ascii	"tstate_t\000"
 2270      74655F74 
 2270      00
 2271              	.LASF175:
 2272 0157 42746E38 		.ascii	"Btn8RXmtr2\000"
 2272      52586D74 
 2272      723200
 2273              	.LASF12:
 2274 0162 75696E74 		.ascii	"uint16_t\000"
 2274      31365F74 
 2274      00
 2275              	.LASF82:
 2276 016b 6B566578 		.ascii	"kVexDigital_8\000"
 2276      44696769 
 2276      74616C5F 
 2276      3800
 2277              	.LASF106:
 2278 0179 6B566578 		.ascii	"kVexMotor_10\000"
 2278      4D6F746F 
 2278      725F3130 
 2278      00
 2279              	.LASF30:
 2280 0186 705F6E65 		.ascii	"p_newer\000"
 2280      77657200 
 2281              	.LASF143:
 2282 018e 6D747970 		.ascii	"mtype\000"
 2282      6500
 2283              	.LASF4:
 2284 0194 73686F72 		.ascii	"short unsigned int\000"
 2284      7420756E 
 2284      7369676E 
 2284      65642069 
 2284      6E7400
 2285              	.LASF71:
 2286 01a7 65786974 		.ascii	"exitcode\000"
 2286      636F6465 
 2286      00
 2287              	.LASF167:
 2288 01b0 42746E41 		.ascii	"BtnAny\000"
 2288      6E7900
 2289              	.LASF62:
ARM GAS  /tmp/ccNobEQL.s 			page 43


 2290 01b7 725F6E65 		.ascii	"r_newer\000"
 2290      77657200 
 2291              	.LASF174:
 2292 01bf 42746E38 		.ascii	"Btn8UXmtr2\000"
 2292      55586D74 
 2292      723200
 2293              	.LASF47:
 2294 01ca 72656761 		.ascii	"regarm_t\000"
 2294      726D5F74 
 2294      00
 2295              	.LASF119:
 2296 01d3 6B566578 		.ascii	"kVexSensorNone\000"
 2296      53656E73 
 2296      6F724E6F 
 2296      6E6500
 2297              	.LASF193:
 2298 01e2 76657855 		.ascii	"vexUserInit\000"
 2298      73657249 
 2298      6E697400 
 2299              	.LASF117:
 2300 01ee 6B496D65 		.ascii	"kImeTotal\000"
 2300      546F7461 
 2300      6C00
 2301              	.LASF25:
 2302 01f8 54687265 		.ascii	"Thread\000"
 2302      616400
 2303              	.LASF53:
 2304 01ff 76745F70 		.ascii	"vt_prev\000"
 2304      72657600 
 2305              	.LASF131:
 2306 0207 6B566578 		.ascii	"kVexConfigQuadEnc1\000"
 2306      436F6E66 
 2306      69675175 
 2306      6164456E 
 2306      633100
 2307              	.LASF132:
 2308 021a 6B566578 		.ascii	"kVexConfigQuadEnc2\000"
 2308      436F6E66 
 2308      69675175 
 2308      6164456E 
 2308      633200
 2309              	.LASF195:
 2310 022d 7665784F 		.ascii	"vexOperator\000"
 2310      70657261 
 2310      746F7200 
 2311              	.LASF203:
 2312 0239 76657875 		.ascii	"vexuser.c\000"
 2312      7365722E 
 2312      6300
 2313              	.LASF0:
 2314 0243 756E7369 		.ascii	"unsigned int\000"
 2314      676E6564 
 2314      20696E74 
 2314      00
 2315              	.LASF52:
 2316 0250 76745F6E 		.ascii	"vt_next\000"
 2316      65787400 
ARM GAS  /tmp/ccNobEQL.s 			page 44


 2317              	.LASF136:
 2318 0258 74566578 		.ascii	"tVexDigitalConfig\000"
 2318      44696769 
 2318      74616C43 
 2318      6F6E6669 
 2318      6700
 2319              	.LASF181:
 2320 026a 42746E35 		.ascii	"Btn5UXmtr2\000"
 2320      55586D74 
 2320      723200
 2321              	.LASF97:
 2322 0275 6B566578 		.ascii	"kVexMotor_1\000"
 2322      4D6F746F 
 2322      725F3100 
 2323              	.LASF98:
 2324 0281 6B566578 		.ascii	"kVexMotor_2\000"
 2324      4D6F746F 
 2324      725F3200 
 2325              	.LASF39:
 2326 028d 705F6D73 		.ascii	"p_msgqueue\000"
 2326      67717565 
 2326      756500
 2327              	.LASF100:
 2328 0298 6B566578 		.ascii	"kVexMotor_4\000"
 2328      4D6F746F 
 2328      725F3400 
 2329              	.LASF101:
 2330 02a4 6B566578 		.ascii	"kVexMotor_5\000"
 2330      4D6F746F 
 2330      725F3500 
 2331              	.LASF102:
 2332 02b0 6B566578 		.ascii	"kVexMotor_6\000"
 2332      4D6F746F 
 2332      725F3600 
 2333              	.LASF103:
 2334 02bc 6B566578 		.ascii	"kVexMotor_7\000"
 2334      4D6F746F 
 2334      725F3700 
 2335              	.LASF104:
 2336 02c8 6B566578 		.ascii	"kVexMotor_8\000"
 2336      4D6F746F 
 2336      725F3800 
 2337              	.LASF105:
 2338 02d4 6B566578 		.ascii	"kVexMotor_9\000"
 2338      4D6F746F 
 2338      725F3900 
 2339              	.LASF177:
 2340 02e0 42746E37 		.ascii	"Btn7LXmtr2\000"
 2340      4C586D74 
 2340      723200
 2341              	.LASF178:
 2342 02eb 42746E37 		.ascii	"Btn7UXmtr2\000"
 2342      55586D74 
 2342      723200
 2343              	.LASF156:
 2344 02f6 42746E35 		.ascii	"Btn5D\000"
 2344      4400
ARM GAS  /tmp/ccNobEQL.s 			page 45


 2345              	.LASF166:
 2346 02fc 42746E38 		.ascii	"Btn8\000"
 2346      00
 2347              	.LASF196:
 2348 0301 626C696E 		.ascii	"blink\000"
 2348      6B00
 2349              	.LASF107:
 2350 0307 6B566578 		.ascii	"kVexMotorNum\000"
 2350      4D6F746F 
 2350      724E756D 
 2350      00
 2351              	.LASF128:
 2352 0314 74566578 		.ascii	"tVexSensorType\000"
 2352      53656E73 
 2352      6F725479 
 2352      706500
 2353              	.LASF22:
 2354 0323 6D73675F 		.ascii	"msg_t\000"
 2354      7400
 2355              	.LASF157:
 2356 0329 42746E35 		.ascii	"Btn5U\000"
 2356      5500
 2357              	.LASF75:
 2358 032f 6B566578 		.ascii	"kVexDigital_1\000"
 2358      44696769 
 2358      74616C5F 
 2358      3100
 2359              	.LASF76:
 2360 033d 6B566578 		.ascii	"kVexDigital_2\000"
 2360      44696769 
 2360      74616C5F 
 2360      3200
 2361              	.LASF77:
 2362 034b 6B566578 		.ascii	"kVexDigital_3\000"
 2362      44696769 
 2362      74616C5F 
 2362      3300
 2363              	.LASF78:
 2364 0359 6B566578 		.ascii	"kVexDigital_4\000"
 2364      44696769 
 2364      74616C5F 
 2364      3400
 2365              	.LASF79:
 2366 0367 6B566578 		.ascii	"kVexDigital_5\000"
 2366      44696769 
 2366      74616C5F 
 2366      3500
 2367              	.LASF80:
 2368 0375 6B566578 		.ascii	"kVexDigital_6\000"
 2368      44696769 
 2368      74616C5F 
 2368      3600
 2369              	.LASF81:
 2370 0383 6B566578 		.ascii	"kVexDigital_7\000"
 2370      44696769 
 2370      74616C5F 
 2370      3700
ARM GAS  /tmp/ccNobEQL.s 			page 46


 2371              	.LASF121:
 2372 0391 6B566578 		.ascii	"kVexSensorDigitalOutput\000"
 2372      53656E73 
 2372      6F724469 
 2372      67697461 
 2372      6C4F7574 
 2373              	.LASF83:
 2374 03a9 6B566578 		.ascii	"kVexDigital_9\000"
 2374      44696769 
 2374      74616C5F 
 2374      3900
 2375              	.LASF46:
 2376 03b7 54687265 		.ascii	"ThreadsList\000"
 2376      6164734C 
 2376      69737400 
 2377              	.LASF23:
 2378 03c3 6576656E 		.ascii	"eventmask_t\000"
 2378      746D6173 
 2378      6B5F7400 
 2379              	.LASF180:
 2380 03cf 42746E35 		.ascii	"Btn5DXmtr2\000"
 2380      44586D74 
 2380      723200
 2381              	.LASF108:
 2382 03da 74566578 		.ascii	"tVexMotor\000"
 2382      4D6F746F 
 2382      7200
 2383              	.LASF176:
 2384 03e4 42746E37 		.ascii	"Btn7DXmtr2\000"
 2384      44586D74 
 2384      723200
 2385              	.LASF54:
 2386 03ef 76745F74 		.ascii	"vt_time\000"
 2386      696D6500 
 2387              	.LASF38:
 2388 03f7 705F7761 		.ascii	"p_waiting\000"
 2388      6974696E 
 2388      6700
 2389              	.LASF134:
 2390 0401 6B566578 		.ascii	"kVexConfigSonarIn\000"
 2390      436F6E66 
 2390      6967536F 
 2390      6E617249 
 2390      6E00
 2391              	.LASF148:
 2392 0413 42746E38 		.ascii	"Btn8D\000"
 2392      4400
 2393              	.LASF142:
 2394 0419 706F7274 		.ascii	"port\000"
 2394      00
 2395              	.LASF144:
 2396 041e 72657665 		.ascii	"reversed\000"
 2396      72736564 
 2396      00
 2397              	.LASF186:
 2398 0427 4163636C 		.ascii	"AcclZXmtr2\000"
 2398      5A586D74 
ARM GAS  /tmp/ccNobEQL.s 			page 47


 2398      723200
 2399              	.LASF66:
 2400 0432 4D757465 		.ascii	"Mutex\000"
 2400      7800
 2401              	.LASF159:
 2402 0438 42746E36 		.ascii	"Btn6U\000"
 2402      5500
 2403              	.LASF31:
 2404 043e 705F6F6C 		.ascii	"p_older\000"
 2404      64657200 
 2405              	.LASF61:
 2406 0446 725F6374 		.ascii	"r_ctx\000"
 2406      7800
 2407              	.LASF45:
 2408 044c 54687265 		.ascii	"ThreadsQueue\000"
 2408      61647351 
 2408      75657565 
 2408      00
 2409              	.LASF147:
 2410 0459 7665784D 		.ascii	"vexMotorCfg\000"
 2410      6F746F72 
 2410      43666700 
 2411              	.LASF64:
 2412 0465 725F6375 		.ascii	"r_current\000"
 2412      7272656E 
 2412      7400
 2413              	.LASF63:
 2414 046f 725F6F6C 		.ascii	"r_older\000"
 2414      64657200 
 2415              	.LASF91:
 2416 0477 6B566578 		.ascii	"kVexMotorUndefined\000"
 2416      4D6F746F 
 2416      72556E64 
 2416      6566696E 
 2416      656400
 2417              	.LASF74:
 2418 048a 6B566578 		.ascii	"kVexDigital_None\000"
 2418      44696769 
 2418      74616C5F 
 2418      4E6F6E65 
 2418      00
 2419              	.LASF94:
 2420 049b 6B566578 		.ascii	"kVexMotor393S\000"
 2420      4D6F746F 
 2420      72333933 
 2420      5300
 2421              	.LASF93:
 2422 04a9 6B566578 		.ascii	"kVexMotor393T\000"
 2422      4D6F746F 
 2422      72333933 
 2422      5400
 2423              	.LASF125:
 2424 04b7 6B566578 		.ascii	"kVexSensorIME\000"
 2424      53656E73 
 2424      6F72494D 
 2424      4500
 2425              	.LASF109:
ARM GAS  /tmp/ccNobEQL.s 			page 48


 2426 04c5 6B496D65 		.ascii	"kImeChannel_1\000"
 2426      4368616E 
 2426      6E656C5F 
 2426      3100
 2427              	.LASF95:
 2428 04d3 74566578 		.ascii	"tVexMotorType\000"
 2428      4D6F746F 
 2428      72547970 
 2428      6500
 2429              	.LASF19:
 2430 04e1 74726566 		.ascii	"trefs_t\000"
 2430      735F7400 
 2431              	.LASF27:
 2432 04e9 705F7072 		.ascii	"p_prev\000"
 2432      657600
 2433              	.LASF21:
 2434 04f0 74707269 		.ascii	"tprio_t\000"
 2434      6F5F7400 
 2435              	.LASF152:
 2436 04f8 42746E37 		.ascii	"Btn7D\000"
 2436      4400
 2437              	.LASF16:
 2438 04fe 5F426F6F 		.ascii	"_Bool\000"
 2438      6C00
 2439              	.LASF13:
 2440 0504 696E7433 		.ascii	"int32_t\000"
 2440      325F7400 
 2441              	.LASF2:
 2442 050c 756E7369 		.ascii	"unsigned char\000"
 2442      676E6564 
 2442      20636861 
 2442      7200
 2443              	.LASF40:
 2444 051a 705F6D73 		.ascii	"p_msg\000"
 2444      6700
 2445              	.LASF204:
 2446 0520 2F686F6D 		.ascii	"/home/amanuel/VEX/BigH-ConVEX\000"
 2446      652F616D 
 2446      616E7565 
 2446      6C2F5645 
 2446      582F4269 
 2447              	.LASF153:
 2448 053e 42746E37 		.ascii	"Btn7L\000"
 2448      4C00
 2449              	.LASF187:
 2450 0544 42746E35 		.ascii	"Btn5Xmtr2\000"
 2450      586D7472 
 2450      3200
 2451              	.LASF42:
 2452 054e 705F6D74 		.ascii	"p_mtxlist\000"
 2452      786C6973 
 2452      7400
 2453              	.LASF3:
 2454 0558 73686F72 		.ascii	"short int\000"
 2454      7420696E 
 2454      7400
 2455              	.LASF33:
ARM GAS  /tmp/ccNobEQL.s 			page 49


 2456 0562 705F7374 		.ascii	"p_state\000"
 2456      61746500 
 2457              	.LASF36:
 2458 056a 705F7072 		.ascii	"p_preempt\000"
 2458      65656D70 
 2458      7400
 2459              	.LASF133:
 2460 0574 6B566578 		.ascii	"kVexConfigSonarOut\000"
 2460      436F6E66 
 2460      6967536F 
 2460      6E61724F 
 2460      757400
 2461              	.LASF60:
 2462 0587 725F7072 		.ascii	"r_prio\000"
 2462      696F00
 2463              	.LASF73:
 2464 058e 65776D61 		.ascii	"ewmask\000"
 2464      736B00
 2465              	.LASF26:
 2466 0595 705F6E65 		.ascii	"p_next\000"
 2466      787400
 2467              	.LASF17:
 2468 059c 746D6F64 		.ascii	"tmode_t\000"
 2468      655F7400 
 2469              	.LASF34:
 2470 05a4 705F666C 		.ascii	"p_flags\000"
 2470      61677300 
 2471              	.LASF137:
 2472 05ac 5F766578 		.ascii	"_vexDigiCfg\000"
 2472      44696769 
 2472      43666700 
 2473              	.LASF146:
 2474 05b8 6368616E 		.ascii	"channel\000"
 2474      6E656C00 
 2475              	.LASF41:
 2476 05c0 705F6570 		.ascii	"p_epending\000"
 2476      656E6469 
 2476      6E6700
 2477              	.LASF14:
 2478 05cb 75696E74 		.ascii	"uint32_t\000"
 2478      33325F74 
 2478      00
 2479              	.LASF59:
 2480 05d4 725F7175 		.ascii	"r_queue\000"
 2480      65756500 
 2481              	.LASF57:
 2482 05dc 76745F73 		.ascii	"vt_systime\000"
 2482      79737469 
 2482      6D6500
 2483              	.LASF202:
 2484 05e7 474E5520 		.ascii	"GNU C 4.6.3\000"
 2484      4320342E 
 2484      362E3300 
 2485              	.LASF139:
 2486 05f3 6368616E 		.ascii	"chan\000"
 2486      00
 2487              	.LASF8:
ARM GAS  /tmp/ccNobEQL.s 			page 50


 2488 05f8 6C6F6E67 		.ascii	"long unsigned int\000"
 2488      20756E73 
 2488      69676E65 
 2488      6420696E 
 2488      7400
 2489              	.LASF9:
 2490 060a 63686172 		.ascii	"char\000"
 2490      00
 2491              	.LASF110:
 2492 060f 6B496D65 		.ascii	"kImeChannel_2\000"
 2492      4368616E 
 2492      6E656C5F 
 2492      3200
 2493              	.LASF111:
 2494 061d 6B496D65 		.ascii	"kImeChannel_3\000"
 2494      4368616E 
 2494      6E656C5F 
 2494      3300
 2495              	.LASF112:
 2496 062b 6B496D65 		.ascii	"kImeChannel_4\000"
 2496      4368616E 
 2496      6E656C5F 
 2496      3400
 2497              	.LASF113:
 2498 0639 6B496D65 		.ascii	"kImeChannel_5\000"
 2498      4368616E 
 2498      6E656C5F 
 2498      3500
 2499              	.LASF114:
 2500 0647 6B496D65 		.ascii	"kImeChannel_6\000"
 2500      4368616E 
 2500      6E656C5F 
 2500      3600
 2501              	.LASF115:
 2502 0655 6B496D65 		.ascii	"kImeChannel_7\000"
 2502      4368616E 
 2502      6E656C5F 
 2502      3700
 2503              	.LASF116:
 2504 0663 6B496D65 		.ascii	"kImeChannel_8\000"
 2504      4368616E 
 2504      6E656C5F 
 2504      3800
 2505              	.LASF84:
 2506 0671 6B566578 		.ascii	"kVexDigital_10\000"
 2506      44696769 
 2506      74616C5F 
 2506      313000
 2507              	.LASF85:
 2508 0680 6B566578 		.ascii	"kVexDigital_11\000"
 2508      44696769 
 2508      74616C5F 
 2508      313100
 2509              	.LASF86:
 2510 068f 6B566578 		.ascii	"kVexDigital_12\000"
 2510      44696769 
 2510      74616C5F 
ARM GAS  /tmp/ccNobEQL.s 			page 51


 2510      313200
 2511              	.LASF188:
 2512 069e 42746E36 		.ascii	"Btn6Xmtr2\000"
 2512      586D7472 
 2512      3200
 2513              	.LASF149:
 2514 06a8 42746E38 		.ascii	"Btn8L\000"
 2514      4C00
 2515              	.LASF198:
 2516 06ae 6D436F6E 		.ascii	"mConfig\000"
 2516      66696700 
 2517              	.LASF69:
 2518 06b6 6D5F6E65 		.ascii	"m_next\000"
 2518      787400
 2519              	.LASF24:
 2520 06bd 73797374 		.ascii	"systime_t\000"
 2520      696D655F 
 2520      7400
 2521              	.LASF43:
 2522 06c7 705F7265 		.ascii	"p_realprio\000"
 2522      616C7072 
 2522      696F00
 2523              	.LASF50:
 2524 06d2 76746675 		.ascii	"vtfunc_t\000"
 2524      6E635F74 
 2524      00
 2525              	.LASF151:
 2526 06db 42746E38 		.ascii	"Btn8R\000"
 2526      5200
 2527              	.LASF126:
 2528 06e1 6B566578 		.ascii	"kVexSensorPotentiometer\000"
 2528      53656E73 
 2528      6F72506F 
 2528      74656E74 
 2528      696F6D65 
 2529              	.LASF150:
 2530 06f9 42746E38 		.ascii	"Btn8U\000"
 2530      5500
 2531              	.LASF122:
 2532 06ff 6B566578 		.ascii	"kVexSensorQuadEncoder\000"
 2532      53656E73 
 2532      6F725175 
 2532      6164456E 
 2532      636F6465 
 2533              	.LASF163:
 2534 0715 42746E35 		.ascii	"Btn5\000"
 2534      00
 2535              	.LASF164:
 2536 071a 42746E36 		.ascii	"Btn6\000"
 2536      00
 2537              	.LASF165:
 2538 071f 42746E37 		.ascii	"Btn7\000"
 2538      00
 2539              	.LASF49:
 2540 0724 636F6E74 		.ascii	"context\000"
 2540      65787400 
 2541              	.LASF123:
ARM GAS  /tmp/ccNobEQL.s 			page 52


 2542 072c 6B566578 		.ascii	"kVexSensorSonarCm\000"
 2542      53656E73 
 2542      6F72536F 
 2542      6E617243 
 2542      6D00
 2543              	.LASF185:
 2544 073e 4163636C 		.ascii	"AcclYXmtr2\000"
 2544      59586D74 
 2544      723200
 2545              	.LASF48:
 2546 0749 696E7463 		.ascii	"intctx\000"
 2546      747800
 2547              	.LASF190:
 2548 0750 42746E38 		.ascii	"Btn8mXtr2\000"
 2548      6D587472 
 2548      3200
 2549              	.LASF197:
 2550 075a 64436F6E 		.ascii	"dConfig\000"
 2550      66696700 
 2551              	.LASF56:
 2552 0762 76745F70 		.ascii	"vt_par\000"
 2552      617200
 2553              	.LASF183:
 2554 0769 42746E36 		.ascii	"Btn6UXmtr2\000"
 2554      55586D74 
 2554      723200
 2555              	.LASF140:
 2556 0774 76657844 		.ascii	"vexDigiCfg\000"
 2556      69676943 
 2556      666700
 2557              	.LASF127:
 2558 077f 6B566578 		.ascii	"kVexSensorInterrupt\000"
 2558      53656E73 
 2558      6F72496E 
 2558      74657272 
 2558      75707400 
 2559              	.LASF35:
 2560 0793 705F7265 		.ascii	"p_refs\000"
 2560      667300
 2561              	.LASF189:
 2562 079a 42746E37 		.ascii	"Btn7Xmtr2\000"
 2562      586D7472 
 2562      3200
 2563              	.LASF65:
 2564 07a4 52656164 		.ascii	"ReadyList\000"
 2564      794C6973 
 2564      7400
 2565              	.LASF173:
 2566 07ae 42746E38 		.ascii	"Btn8LXmtr2\000"
 2566      4C586D74 
 2566      723200
 2567              	.LASF160:
 2568 07b9 4163636C 		.ascii	"AcclX\000"
 2568      5800
 2569              	.LASF161:
 2570 07bf 4163636C 		.ascii	"AcclY\000"
 2570      5900
ARM GAS  /tmp/ccNobEQL.s 			page 53


 2571              	.LASF162:
 2572 07c5 4163636C 		.ascii	"AcclZ\000"
 2572      5A00
 2573              	.LASF194:
 2574 07cb 76657841 		.ascii	"vexAutonomous\000"
 2574      75746F6E 
 2574      6F6D6F75 
 2574      7300
 2575              	.LASF200:
 2576 07d9 726C6973 		.ascii	"rlist\000"
 2576      7400
 2577              	.LASF118:
 2578 07df 6B496D65 		.ascii	"kImeChannelNone\000"
 2578      4368616E 
 2578      6E656C4E 
 2578      6F6E6500 
 2579              	.LASF10:
 2580 07ef 75696E74 		.ascii	"uint8_t\000"
 2580      385F7400 
 2581              	.LASF191:
 2582 07f7 42746E41 		.ascii	"BtnAnyXmtr2\000"
 2582      6E79586D 
 2582      74723200 
 2583              	.LASF96:
 2584 0803 6B566578 		.ascii	"kVexMotor_None\000"
 2584      4D6F746F 
 2584      725F4E6F 
 2584      6E6500
 2585              	.LASF129:
 2586 0812 6B566578 		.ascii	"kVexConfigInput\000"
 2586      436F6E66 
 2586      6967496E 
 2586      70757400 
 2587              	.LASF155:
 2588 0822 42746E37 		.ascii	"Btn7R\000"
 2588      5200
 2589              	.LASF72:
 2590 0828 77746F62 		.ascii	"wtobjp\000"
 2590      6A7000
 2591              	.LASF32:
 2592 082f 705F6E61 		.ascii	"p_name\000"
 2592      6D6500
 2593              	.LASF169:
 2594 0836 43683258 		.ascii	"Ch2Xmtr2\000"
 2594      6D747232 
 2594      00
 2595              	.LASF154:
 2596 083f 42746E37 		.ascii	"Btn7U\000"
 2596      5500
 2597              	.LASF124:
 2598 0845 6B566578 		.ascii	"kVexSensorSonarInch\000"
 2598      53656E73 
 2598      6F72536F 
 2598      6E617249 
 2598      6E636800 
 2599              	.LASF58:
 2600 0859 56544C69 		.ascii	"VTList\000"
ARM GAS  /tmp/ccNobEQL.s 			page 54


 2600      737400
 2601              	.LASF184:
 2602 0860 4163636C 		.ascii	"AcclXXmtr2\000"
 2602      58586D74 
 2602      723200
 2603              	.LASF179:
 2604 086b 42746E37 		.ascii	"Btn7RXmtr2\000"
 2604      52586D74 
 2604      723200
 2605              	.LASF182:
 2606 0876 42746E36 		.ascii	"Btn6DXmtr2\000"
 2606      44586D74 
 2606      723200
 2607              	.LASF141:
 2608 0881 5F766578 		.ascii	"_vexMotorCfg\000"
 2608      4D6F746F 
 2608      72436667 
 2608      00
 2609              	.LASF158:
 2610 088e 42746E36 		.ascii	"Btn6D\000"
 2610      4400
 2611              	.LASF68:
 2612 0894 6D5F6F77 		.ascii	"m_owner\000"
 2612      6E657200 
 2613              	.LASF29:
 2614 089c 705F6374 		.ascii	"p_ctx\000"
 2614      7800
 2615              	.LASF55:
 2616 08a2 76745F66 		.ascii	"vt_func\000"
 2616      756E6300 
 2617              	.LASF89:
 2618 08aa 6B566578 		.ascii	"kVexDigitalInput\000"
 2618      44696769 
 2618      74616C49 
 2618      6E707574 
 2618      00
 2619              	.LASF88:
 2620 08bb 74566578 		.ascii	"tVexDigitalPin\000"
 2620      44696769 
 2620      74616C50 
 2620      696E00
 2621              		.ident	"GCC: (Sourcery CodeBench Lite 2012.03-56) 4.6.3"
ARM GAS  /tmp/ccNobEQL.s 			page 55


DEFINED SYMBOLS
                            *ABS*:00000000 vexuser.c
     /tmp/ccNobEQL.s:19     .text.vexUserSetup:00000000 $t
     /tmp/ccNobEQL.s:25     .text.vexUserSetup:00000000 vexUserSetup
     /tmp/ccNobEQL.s:305    .data.dConfig:00000000 .LANCHOR0
     /tmp/ccNobEQL.s:249    .data.mConfig:00000000 .LANCHOR1
     /tmp/ccNobEQL.s:56     .text.vexUserInit:00000000 $t
     /tmp/ccNobEQL.s:62     .text.vexUserInit:00000000 vexUserInit
     /tmp/ccNobEQL.s:75     .text.vexAutonomous:00000000 $t
     /tmp/ccNobEQL.s:81     .text.vexAutonomous:00000000 vexAutonomous
     /tmp/ccNobEQL.s:236    .rodata.str1.4:00000000 .LC0
     /tmp/ccNobEQL.s:112    .text.vexOperator:00000000 $t
     /tmp/ccNobEQL.s:118    .text.vexOperator:00000000 vexOperator
     /tmp/ccNobEQL.s:239    .rodata.str1.4:00000008 .LC1
     /tmp/ccNobEQL.s:242    .rodata.str1.4:00000014 .LC2
     /tmp/ccNobEQL.s:245    .rodata.str1.4:00000024 .LC3
     /tmp/ccNobEQL.s:229    .text.vexOperator:000000c8 $d
     /tmp/ccNobEQL.s:235    .rodata.str1.4:00000000 $d
     /tmp/ccNobEQL.s:248    .data.mConfig:00000000 $d
     /tmp/ccNobEQL.s:252    .data.mConfig:00000000 mConfig
     /tmp/ccNobEQL.s:304    .data.dConfig:00000000 $d
     /tmp/ccNobEQL.s:308    .data.dConfig:00000000 dConfig
                     .debug_frame:00000010 $d

UNDEFINED SYMBOLS
vexDigitalConfigure
vexMotorConfigure
vexTaskRegister
vexSleep
__aeabi_i2d
__aeabi_ddiv
__aeabi_ui2d
rlist
vtlist
vexDigitalPinSet
vexSpiGetMainBattery
vexLcdPrintf
vexMotorGet
vexControllerGet
vexMotorSet
