ARM GAS  /tmp/ccNobEQL.s 			page 1


   1              		.syntax unified
   2              		.cpu cortex-m3
   3              		.fpu softvfp
   4              		.eabi_attribute 20, 1
   5              		.eabi_attribute 21, 1
   6              		.eabi_attribute 23, 3
   7              		.eabi_attribute 24, 1
   8              		.eabi_attribute 25, 1
   9              		.eabi_attribute 26, 1
  10              		.eabi_attribute 30, 2
  11              		.eabi_attribute 34, 1
  12              		.eabi_attribute 18, 4
  13              		.thumb
  14              		.file	"vexuser.c"
  15              		.text
  16              	.Ltext0:
  17              		.cfi_sections	.debug_frame
  18              		.section	.text.vexUserSetup,"ax",%progbits
  19              		.align	2
  20              		.p2align 4,,15
  21              		.weak	vexUserSetup
  22              		.thumb
  23              		.thumb_func
  24              		.type	vexUserSetup, %function
  25              	vexUserSetup:
  26              	.LFB63:
  27              		.file 1 "vexuser.c"
  28              		.loc 1 87 0
  29              		.cfi_startproc
  30              		@ args = 0, pretend = 0, frame = 0
  31              		@ frame_needed = 0, uses_anonymous_args = 0
  32              		.loc 1 88 0
  33 0000 40F20000 		movw	r0, #:lower16:.LANCHOR0
  34 0004 0C21     		movs	r1, #12
  35              		.loc 1 87 0
  36 0006 08B5     		push	{r3, lr}
  37              	.LCFI0:
  38              		.cfi_def_cfa_offset 8
  39              		.cfi_offset 14, -4
  40              		.cfi_offset 3, -8
  41              		.loc 1 88 0
  42 0008 C0F20000 		movt	r0, #:upper16:.LANCHOR0
  43 000c FFF7FEFF 		bl	vexDigitalConfigure
  44              		.loc 1 89 0
  45 0010 40F20000 		movw	r0, #:lower16:.LANCHOR1
  46 0014 C0F20000 		movt	r0, #:upper16:.LANCHOR1
  47 0018 0A21     		movs	r1, #10
  48              		.loc 1 90 0
  49 001a BDE80840 		pop	{r3, lr}
  50              		.loc 1 89 0
  51 001e FFF7FEBF 		b	vexMotorConfigure
  52              		.cfi_endproc
  53              	.LFE63:
  54              		.size	vexUserSetup, .-vexUserSetup
  55 0022 00BFAFF3 		.section	.text.vexUserInit,"ax",%progbits
  55      0080AFF3 
  55      0080AFF3 
ARM GAS  /tmp/ccNobEQL.s 			page 2


  55      0080
  56              		.align	2
  57              		.p2align 4,,15
  58              		.weak	vexUserInit
  59              		.thumb
  60              		.thumb_func
  61              		.type	vexUserInit, %function
  62              	vexUserInit:
  63              	.LFB64:
  64              		.loc 1 102 0
  65              		.cfi_startproc
  66              		@ args = 0, pretend = 0, frame = 0
  67              		@ frame_needed = 0, uses_anonymous_args = 0
  68              		@ link register save eliminated.
  69              		.loc 1 104 0
  70 0000 7047     		bx	lr
  71              		.cfi_endproc
  72              	.LFE64:
  73              		.size	vexUserInit, .-vexUserInit
  74 0002 00BFAFF3 		.section	.text.vexAutonomous,"ax",%progbits
  74      0080AFF3 
  74      0080AFF3 
  74      0080
  75              		.align	2
  76              		.p2align 4,,15
  77              		.global	vexAutonomous
  78              		.thumb
  79              		.thumb_func
  80              		.type	vexAutonomous, %function
  81              	vexAutonomous:
  82              	.LFB65:
  83              		.loc 1 114 0
  84              		.cfi_startproc
  85              		@ args = 0, pretend = 0, frame = 0
  86              		@ frame_needed = 0, uses_anonymous_args = 0
  87              	.LVL0:
  88              		.loc 1 118 0
  89 0000 40F20000 		movw	r0, #:lower16:.LC0
  90              	.LVL1:
  91              		.loc 1 114 0
  92 0004 08B5     		push	{r3, lr}
  93              	.LCFI1:
  94              		.cfi_def_cfa_offset 8
  95              		.cfi_offset 14, -4
  96              		.cfi_offset 3, -8
  97              		.loc 1 118 0
  98 0006 C0F20000 		movt	r0, #:upper16:.LC0
  99 000a FFF7FEFF 		bl	vexTaskRegister
 100              	.L4:
 101              		.loc 1 123 0 discriminator 1
 102 000e 1920     		movs	r0, #25
 103 0010 FFF7FEFF 		bl	vexSleep
 104 0014 FBE7     		b	.L4
 105              		.cfi_endproc
 106              	.LFE65:
 107              		.size	vexAutonomous, .-vexAutonomous
 108              		.global	__aeabi_i2d
ARM GAS  /tmp/ccNobEQL.s 			page 3


 109              		.global	__aeabi_ddiv
 110              		.global	__aeabi_ui2d
 111 0016 00BFAFF3 		.section	.text.vexOperator,"ax",%progbits
 111      0080AFF3 
 111      0080
 112              		.align	2
 113              		.p2align 4,,15
 114              		.global	vexOperator
 115              		.thumb
 116              		.thumb_func
 117              		.type	vexOperator, %function
 118              	vexOperator:
 119              	.LFB66:
 120              		.loc 1 140 0
 121              		.cfi_startproc
 122              		@ args = 0, pretend = 0, frame = 0
 123              		@ frame_needed = 0, uses_anonymous_args = 0
 124              	.LVL2:
 125 0000 F0B5     		push	{r4, r5, r6, r7, lr}
 126              	.LCFI2:
 127              		.cfi_def_cfa_offset 20
 128              		.cfi_offset 14, -4
 129              		.cfi_offset 7, -8
 130              		.cfi_offset 6, -12
 131              		.cfi_offset 5, -16
 132              		.cfi_offset 4, -20
 133              		.loc 1 146 0
 134 0002 40F20000 		movw	r0, #:lower16:.LC1
 135              	.LVL3:
 136              		.loc 1 149 0
 137 0006 40F20005 		movw	r5, #:lower16:rlist
 138              		.loc 1 140 0
 139 000a 85B0     		sub	sp, sp, #20
 140              	.LCFI3:
 141              		.cfi_def_cfa_offset 40
 142              		.loc 1 146 0
 143 000c C0F20000 		movt	r0, #:upper16:.LC1
 144              		.loc 1 149 0
 145 0010 C0F20005 		movt	r5, #:upper16:rlist
 146              		.loc 1 146 0
 147 0014 FFF7FEFF 		bl	vexTaskRegister
 148              		.loc 1 149 0
 149 0018 AB69     		ldr	r3, [r5, #24]
 150 001a 5C7F     		ldrb	r4, [r3, #29]	@ zero_extendqisi2
 151 001c 14F00404 		ands	r4, r4, #4
 152 0020 4ED1     		bne	.L7
 153 0022 40F20006 		movw	r6, #:lower16:vtlist
 154 0026 C0F20006 		movt	r6, #:upper16:vtlist
 155              	.LVL4:
 156              	.L8:
 157              		.loc 1 152 0
 158 002a C4F3C001 		ubfx	r1, r4, #3, #1
 159 002e 0020     		movs	r0, #0
 160 0030 FFF7FEFF 		bl	vexDigitalPinSet
 161              		.loc 1 155 0
 162 0034 FFF7FEFF 		bl	vexSpiGetMainBattery
 163 0038 FFF7FEFF 		bl	__aeabi_i2d
ARM GAS  /tmp/ccNobEQL.s 			page 4


 164 003c 22A3     		adr	r3, .L10
 165 003e D3E90023 		ldrd	r2, [r3]
 166 0042 FFF7FEFF 		bl	__aeabi_ddiv
 167 0046 F368     		ldr	r3, [r6, #12]
 168 0048 CDE90001 		strd	r0, [sp]
 169 004c 1846     		mov	r0, r3
 170 004e FFF7FEFF 		bl	__aeabi_ui2d
 171 0052 1DA3     		adr	r3, .L10
 172 0054 D3E90023 		ldrd	r2, [r3]
 173 0058 FFF7FEFF 		bl	__aeabi_ddiv
 174 005c 40F20002 		movw	r2, #:lower16:.LC2
 175 0060 C0F20002 		movt	r2, #:upper16:.LC2
 176 0064 CDE90201 		strd	r0, [sp, #8]
 177 0068 0021     		movs	r1, #0
 178 006a 0120     		movs	r0, #1
 179 006c FFF7FEFF 		bl	vexLcdPrintf
 180              		.loc 1 156 0
 181 0070 0020     		movs	r0, #0
 182 0072 FFF7FEFF 		bl	vexMotorGet
 183 0076 0746     		mov	r7, r0
 184 0078 0920     		movs	r0, #9
 185 007a FFF7FEFF 		bl	vexMotorGet
 186 007e 40F20002 		movw	r2, #:lower16:.LC3
 187 0082 0090     		str	r0, [sp, #0]
 188 0084 0120     		movs	r0, #1
 189 0086 3B46     		mov	r3, r7
 190 0088 C0F20002 		movt	r2, #:upper16:.LC3
 191 008c 0146     		mov	r1, r0
 192 008e FFF7FEFF 		bl	vexLcdPrintf
 193              		.loc 1 160 0
 194 0092 0220     		movs	r0, #2
 195 0094 FFF7FEFF 		bl	vexControllerGet
 196 0098 0146     		mov	r1, r0
 197 009a 0020     		movs	r0, #0
 198 009c FFF7FEFF 		bl	vexMotorSet
 199              		.loc 1 163 0
 200 00a0 0120     		movs	r0, #1
 201 00a2 FFF7FEFF 		bl	vexControllerGet
 202 00a6 0146     		mov	r1, r0
 203 00a8 0920     		movs	r0, #9
 204 00aa FFF7FEFF 		bl	vexMotorSet
 205              		.loc 1 166 0
 206 00ae 1920     		movs	r0, #25
 207 00b0 FFF7FEFF 		bl	vexSleep
 208              		.loc 1 149 0
 209 00b4 AB69     		ldr	r3, [r5, #24]
 210              		.loc 1 152 0
 211 00b6 0134     		adds	r4, r4, #1
 212              		.loc 1 149 0
 213 00b8 5B7F     		ldrb	r3, [r3, #29]	@ zero_extendqisi2
 214              		.loc 1 152 0
 215 00ba A4B2     		uxth	r4, r4
 216              	.LVL5:
 217              		.loc 1 149 0
 218 00bc 5B07     		lsls	r3, r3, #29
 219 00be B4D5     		bpl	.L8
 220              	.LVL6:
ARM GAS  /tmp/ccNobEQL.s 			page 5


 221              	.L7:
 222              		.loc 1 170 0
 223 00c0 0020     		movs	r0, #0
 224 00c2 05B0     		add	sp, sp, #20
 225 00c4 F0BD     		pop	{r4, r5, r6, r7, pc}
 226              	.L11:
 227 00c6 00BF     		.align	3
 228              	.L10:
 229 00c8 00000000 		.word	0
 230 00cc 00408F40 		.word	1083129856
 231              		.cfi_endproc
 232              	.LFE66:
 233              		.size	vexOperator, .-vexOperator
 234              		.section	.rodata.str1.4,"aMS",%progbits,1
 235              		.align	2
 236              	.LC0:
 237 0000 6175746F 		.ascii	"auton\000"
 237      6E00
 238 0006 0000     		.space	2
 239              	.LC1:
 240 0008 6F706572 		.ascii	"operator\000"
 240      61746F72 
 240      00
 241 0011 000000   		.space	3
 242              	.LC2:
 243 0014 25342E32 		.ascii	"%4.2fV   %8.1f\000"
 243      66562020 
 243      2025382E 
 243      316600
 244 0023 00       		.space	1
 245              	.LC3:
 246 0024 4C202533 		.ascii	"L %3d R %3d\000"
 246      64205220 
 246      25336400 
 247              		.section	.data.mConfig,"aw",%progbits
 248              		.align	2
 249              		.set	.LANCHOR1,. + 0
 250              		.type	mConfig, %object
 251              		.size	mConfig, 60
 252              	mConfig:
 253 0000 00       		.byte	0
 254 0001 02       		.byte	2
 255 0002 00       		.byte	0
 256 0003 06       		.byte	6
 257 0004 0000     		.short	0
 258 0006 01       		.byte	1
 259 0007 00       		.byte	0
 260 0008 00       		.byte	0
 261 0009 00       		.byte	0
 262 000a 0000     		.short	0
 263 000c 02       		.byte	2
 264 000d 00       		.byte	0
 265 000e 00       		.byte	0
 266 000f 00       		.byte	0
 267 0010 0000     		.short	0
 268 0012 03       		.byte	3
 269 0013 00       		.byte	0
ARM GAS  /tmp/ccNobEQL.s 			page 6


 270 0014 00       		.byte	0
 271 0015 00       		.byte	0
 272 0016 0000     		.short	0
 273 0018 04       		.byte	4
 274 0019 00       		.byte	0
 275 001a 00       		.byte	0
 276 001b 00       		.byte	0
 277 001c 0000     		.short	0
 278 001e 05       		.byte	5
 279 001f 00       		.byte	0
 280 0020 00       		.byte	0
 281 0021 00       		.byte	0
 282 0022 0000     		.short	0
 283 0024 06       		.byte	6
 284 0025 00       		.byte	0
 285 0026 00       		.byte	0
 286 0027 00       		.byte	0
 287 0028 0000     		.short	0
 288 002a 07       		.byte	7
 289 002b 00       		.byte	0
 290 002c 00       		.byte	0
 291 002d 00       		.byte	0
 292 002e 0000     		.short	0
 293 0030 08       		.byte	8
 294 0031 00       		.byte	0
 295 0032 00       		.byte	0
 296 0033 00       		.byte	0
 297 0034 0000     		.short	0
 298 0036 09       		.byte	9
 299 0037 02       		.byte	2
 300 0038 00       		.byte	0
 301 0039 06       		.byte	6
 302 003a 0100     		.short	1
 303              		.section	.data.dConfig,"aw",%progbits
 304              		.align	2
 305              		.set	.LANCHOR0,. + 0
 306              		.type	dConfig, %object
 307              		.size	dConfig, 72
 308              	dConfig:
 309 0000 00       		.byte	0
 310 0001 02       		.byte	2
 311 0002 01       		.byte	1
 312 0003 00       		.space	1
 313 0004 0000     		.short	0
 314 0006 01       		.byte	1
 315 0007 02       		.byte	2
 316 0008 01       		.byte	1
 317 0009 00       		.space	1
 318 000a 0000     		.short	0
 319 000c 02       		.byte	2
 320 000d 01       		.byte	1
 321 000e 00       		.byte	0
 322 000f 00       		.space	1
 323 0010 0000     		.short	0
 324 0012 03       		.byte	3
 325 0013 01       		.byte	1
 326 0014 00       		.byte	0
ARM GAS  /tmp/ccNobEQL.s 			page 7


 327 0015 00       		.space	1
 328 0016 0000     		.short	0
 329 0018 04       		.byte	4
 330 0019 01       		.byte	1
 331 001a 00       		.byte	0
 332 001b 00       		.space	1
 333 001c 0000     		.short	0
 334 001e 05       		.byte	5
 335 001f 01       		.byte	1
 336 0020 00       		.byte	0
 337 0021 00       		.space	1
 338 0022 0000     		.short	0
 339 0024 06       		.byte	6
 340 0025 01       		.byte	1
 341 0026 00       		.byte	0
 342 0027 00       		.space	1
 343 0028 0000     		.short	0
 344 002a 07       		.byte	7
 345 002b 01       		.byte	1
 346 002c 00       		.byte	0
 347 002d 00       		.space	1
 348 002e 0000     		.short	0
 349 0030 08       		.byte	8
 350 0031 01       		.byte	1
 351 0032 00       		.byte	0
 352 0033 00       		.space	1
 353 0034 0000     		.short	0
 354 0036 09       		.byte	9
 355 0037 01       		.byte	1
 356 0038 00       		.byte	0
 357 0039 00       		.space	1
 358 003a 0000     		.short	0
 359 003c 0A       		.byte	10
 360 003d 01       		.byte	1
 361 003e 00       		.byte	0
 362 003f 00       		.space	1
 363 0040 0000     		.short	0
 364 0042 0B       		.byte	11
 365 0043 01       		.byte	1
 366 0044 00       		.byte	0
 367 0045 00       		.space	1
 368 0046 0000     		.short	0
 369              		.text
 370              	.Letext0:
 371              		.file 2 "/opt/pros/toolchain/bin/../lib/gcc/arm-none-eabi/4.6.3/../../../../arm-none-eabi/include/
 372              		.file 3 "../ChibiOS_2.6.2/os/ports/GCC/ARMCMx/chtypes.h"
 373              		.file 4 "../ChibiOS_2.6.2/os/kernel/include/chlists.h"
 374              		.file 5 "../ChibiOS_2.6.2/os/kernel/include/chthreads.h"
 375              		.file 6 "../ChibiOS_2.6.2/os/ports/GCC/ARMCMx/chcore_v7m.h"
 376              		.file 7 "../ChibiOS_2.6.2/os/kernel/include/chvt.h"
 377              		.file 8 "../ChibiOS_2.6.2/os/kernel/include/chschd.h"
 378              		.file 9 "../ChibiOS_2.6.2/os/kernel/include/chmtx.h"
 379              		.file 10 "../convex/cortex/fw/vexdigital.h"
 380              		.file 11 "../convex/cortex/fw/vexmotor.h"
 381              		.file 12 "../convex/cortex/fw/vexime.h"
 382              		.file 13 "../convex/cortex/fw/vexconfig.h"
 383              		.file 14 "../convex/cortex/fw/vexctl.h"
ARM GAS  /tmp/ccNobEQL.s 			page 8


 384              		.file 15 "../ChibiOS_2.6.2/os/ports/common/ARMCMx/CMSIS/include/core_cm3.h"